
out/rom.out:     file format elf32-m68k


Disassembly of section .text:

00000000 <_Start_Of_Rom>:
       0:	e100           	aslb #8,%d0
       2:	0000 0000      	orib #0,%d0
       6:	0200 0001      	andib #1,%d0
       a:	9c12           	subb %a2@,%d6
       c:	0001 9c26      	orib #38,%d1
      10:	0001 9c3e      	orib #62,%d1
      14:	0001 9c5c      	orib #92,%d1
      18:	0001 9c72      	orib #114,%d1
      1c:	0001 9c8c      	orib #-116,%d1
      20:	0001 9ca8      	orib #-88,%d1
      24:	0001 9cc6      	orib #-58,%d1
      28:	0001 9cd6      	orib #-42,%d1
      2c:	0001 9cf2      	orib #-14,%d1
      30:	0001 9d0e      	orib #14,%d1
      34:	0001 9d0e      	orib #14,%d1
      38:	0001 9d0e      	orib #14,%d1
      3c:	0001 9d0e      	orib #14,%d1
      40:	0001 9d0e      	orib #14,%d1
      44:	0001 9d0e      	orib #14,%d1
      48:	0001 9d0e      	orib #14,%d1
      4c:	0001 9d0e      	orib #14,%d1
      50:	0001 9d0e      	orib #14,%d1
      54:	0001 9d0e      	orib #14,%d1
      58:	0001 9d0e      	orib #14,%d1
      5c:	0001 9d0e      	orib #14,%d1
      60:	0001 9d0e      	orib #14,%d1
      64:	0000 0248      	orib #72,%d0
      68:	0000 025a      	orib #90,%d0
      6c:	0000 0248      	orib #72,%d0
      70:	e0ff           	.short 0xe0ff
      72:	0bb6 0000      	bclr %d5,%fp@(0,%d0:w)
      76:	0248           	.short 0x0248
      78:	0000 026c      	orib #108,%d0
      7c:	0000 0248      	orib #72,%d0
      80:	0000 0536      	orib #54,%d0
      84:	0000 0248      	orib #72,%d0
      88:	0000 0248      	orib #72,%d0
      8c:	0000 0248      	orib #72,%d0
      90:	0000 0248      	orib #72,%d0
      94:	0000 0248      	orib #72,%d0
      98:	0000 0248      	orib #72,%d0
      9c:	0000 0248      	orib #72,%d0
      a0:	0000 0248      	orib #72,%d0
      a4:	0000 0248      	orib #72,%d0
      a8:	0000 0248      	orib #72,%d0
      ac:	0000 0248      	orib #72,%d0
      b0:	0000 0248      	orib #72,%d0
      b4:	0000 0248      	orib #72,%d0
      b8:	0000 0248      	orib #72,%d0
      bc:	0000 0248      	orib #72,%d0
      c0:	0000 0248      	orib #72,%d0
      c4:	0000 0248      	orib #72,%d0
      c8:	0000 0248      	orib #72,%d0
      cc:	0000 0248      	orib #72,%d0
      d0:	0000 0248      	orib #72,%d0
      d4:	0000 0248      	orib #72,%d0
      d8:	0000 0248      	orib #72,%d0
      dc:	0000 0248      	orib #72,%d0
      e0:	0000 0248      	orib #72,%d0
      e4:	0000 0248      	orib #72,%d0
      e8:	0000 0248      	orib #72,%d0
      ec:	0000 0248      	orib #72,%d0
      f0:	0000 0248      	orib #72,%d0
      f4:	0000 0248      	orib #72,%d0
      f8:	0000 0248      	orib #72,%d0
      fc:	0000 0248      	orib #72,%d0

00000100 <rom_header>:
     100:	5345           	subqw #1,%d5
     102:	4741           	.short 0x4741
     104:	204d           	moveal %a5,%a0
     106:	4547           	.short 0x4547
     108:	4120           	.short 0x4120
     10a:	4452           	negw %a2@
     10c:	4956           	.short 0x4956
     10e:	4520           	.short 0x4520
     110:	2843           	moveal %d3,%a4
     112:	2953 4744      	movel %a3@,%a4@(18244)
     116:	4b20           	.short 0x4b20
     118:	3230 3234      	movew %a0@(34,%d3:w:2),%d1
     11c:	2020           	movel %a0@-,%d0
     11e:	2020           	movel %a0@-,%d0
     120:	5341           	subqw #1,%d1
     122:	4d50           	.short 0x4d50
     124:	4c45           	.short 0x4c45
     126:	2050           	moveal %a0@,%a0
     128:	524f           	addqw #1,%sp
     12a:	4752           	.short 0x4752
     12c:	414d           	.short 0x414d
     12e:	2020           	movel %a0@-,%d0
     130:	2020           	movel %a0@-,%d0
     132:	2020           	movel %a0@-,%d0
     134:	2020           	movel %a0@-,%d0
     136:	2020           	movel %a0@-,%d0
     138:	2020           	movel %a0@-,%d0
     13a:	2020           	movel %a0@-,%d0
     13c:	2020           	movel %a0@-,%d0
     13e:	2020           	movel %a0@-,%d0
     140:	2020           	movel %a0@-,%d0
     142:	2020           	movel %a0@-,%d0
     144:	2020           	movel %a0@-,%d0
     146:	2020           	movel %a0@-,%d0
     148:	2020           	movel %a0@-,%d0
     14a:	2020           	movel %a0@-,%d0
     14c:	2020           	movel %a0@-,%d0
     14e:	2020           	movel %a0@-,%d0
     150:	5341           	subqw #1,%d1
     152:	4d50           	.short 0x4d50
     154:	4c45           	.short 0x4c45
     156:	2050           	moveal %a0@,%a0
     158:	524f           	addqw #1,%sp
     15a:	4752           	.short 0x4752
     15c:	414d           	.short 0x414d
     15e:	2020           	movel %a0@-,%d0
     160:	2020           	movel %a0@-,%d0
     162:	2020           	movel %a0@-,%d0
     164:	2020           	movel %a0@-,%d0
     166:	2020           	movel %a0@-,%d0
     168:	2020           	movel %a0@-,%d0
     16a:	2020           	movel %a0@-,%d0
     16c:	2020           	movel %a0@-,%d0
     16e:	2020           	movel %a0@-,%d0
     170:	2020           	movel %a0@-,%d0
     172:	2020           	movel %a0@-,%d0
     174:	2020           	movel %a0@-,%d0
     176:	2020           	movel %a0@-,%d0
     178:	2020           	movel %a0@-,%d0
     17a:	2020           	movel %a0@-,%d0
     17c:	2020           	movel %a0@-,%d0
     17e:	2020           	movel %a0@-,%d0
     180:	474d           	.short 0x474d
     182:	2030 3030      	movel %a0@(30,%d3:w),%d0
     186:	3030 3030      	movew %a0@(30,%d3:w),%d0
     18a:	302d 3030      	movew %a5@(12336),%d0
     18e:	0000 4a44      	orib #68,%d0
     192:	2020           	movel %a0@-,%d0
     194:	2020           	movel %a0@-,%d0
     196:	2020           	movel %a0@-,%d0
     198:	2020           	movel %a0@-,%d0
     19a:	2020           	movel %a0@-,%d0
     19c:	2020           	movel %a0@-,%d0
     19e:	2020           	movel %a0@-,%d0
     1a0:	0000 0000      	orib #0,%d0
     1a4:	000f           	.short 0x000f
     1a6:	ffff           	.short 0xffff
     1a8:	e0ff           	.short 0xe0ff
     1aa:	0000 e0ff      	orib #-1,%d0
     1ae:	ffff           	.short 0xffff
     1b0:	5241           	addqw #1,%d1
     1b2:	f820           	.short 0xf820
     1b4:	0020 0000      	orib #0,%a0@-
     1b8:	0020 ffff      	orib #-1,%a0@-
     1bc:	2020           	movel %a0@-,%d0
     1be:	2020           	movel %a0@-,%d0
     1c0:	2020           	movel %a0@-,%d0
     1c2:	2020           	movel %a0@-,%d0
     1c4:	2020           	movel %a0@-,%d0
     1c6:	2020           	movel %a0@-,%d0
     1c8:	4445           	negw %d5
     1ca:	4d4f           	.short 0x4d4f
     1cc:	4e53 5452      	linkw %a3,#21586
     1d0:	4154           	.short 0x4154
     1d2:	494f           	.short 0x494f
     1d4:	4e20           	.short 0x4e20
     1d6:	5052           	addqw #8,%a2@
     1d8:	4f47           	.short 0x4f47
     1da:	5241           	addqw #1,%d1
     1dc:	4d20           	.short 0x4d20
     1de:	2020           	movel %a0@-,%d0
     1e0:	2020           	movel %a0@-,%d0
     1e2:	2020           	movel %a0@-,%d0
     1e4:	2020           	movel %a0@-,%d0
     1e6:	2020           	movel %a0@-,%d0
     1e8:	2020           	movel %a0@-,%d0
     1ea:	2020           	movel %a0@-,%d0
     1ec:	2020           	movel %a0@-,%d0
     1ee:	2020           	movel %a0@-,%d0
     1f0:	4a55           	tstw %a5@
     1f2:	4520           	.short 0x4520
     1f4:	2020           	movel %a0@-,%d0
     1f6:	2020           	movel %a0@-,%d0
     1f8:	2020           	movel %a0@-,%d0
     1fa:	2020           	movel %a0@-,%d0
     1fc:	2020           	movel %a0@-,%d0
     1fe:	2020           	movel %a0@-,%d0

00000200 <_Entry_Point>:
     200:	46fc 2700      	movew #9984,%sr
     204:	4e67           	movel %sp,%usp
     206:	9efc 0200      	subaw #512,%sp
     20a:	207c 00a1 1100 	moveal #10555648,%a0
     210:	303c 0100      	movew #256,%d0
     214:	3080           	movew %d0,%a0@
     216:	3140 0100      	movew %d0,%a0@(256)
     21a:	4ab9 00a1 0008 	tstl a10008 <_stext+0x9cdf50>
     220:	6620           	bnes 242 <SkipInit>
     222:	4a79 00a1 000c 	tstw a1000c <_stext+0x9cdf54>
     228:	6618           	bnes 242 <SkipInit>
     22a:	1028 ef01      	moveb %a0@(-4351),%d0
     22e:	0200 000f      	andib #15,%d0
     232:	6708           	beqs 23c <NoTMSS>
     234:	217c 5345 4741 	movel #1397049153,%a0@(12032)
     23a:	2f00 

0000023c <NoTMSS>:
     23c:	4ef9 0001 6dae 	jmp 16dae <_start_entry>

00000242 <SkipInit>:
     242:	4ef9 0001 6e7c 	jmp 16e7c <_reset_entry>

00000248 <_INT>:
     248:	48e7 c0c0      	moveml %d0-%d1/%a0-%a1,%sp@-
     24c:	2079 e0ff 0bc0 	moveal e0ff0bc0 <intCB>,%a0
     252:	4e90           	jsr %a0@
     254:	4cdf 0303      	moveml %sp@+,%d0-%d1/%a0-%a1
     258:	4e73           	rte

0000025a <_EXTINT>:
     25a:	48e7 c0c0      	moveml %d0-%d1/%a0-%a1,%sp@-
     25e:	2079 e0ff 0054 	moveal e0ff0054 <eintCB>,%a0
     264:	4e90           	jsr %a0@
     266:	4cdf 0303      	moveml %sp@+,%d0-%d1/%a0-%a1
     26a:	4e73           	rte

0000026c <_VINT>:
     26c:	0817 0005      	btst #5,%sp@
     270:	663e           	bnes 2b0 <no_user_task>
     272:	4a79 e0ff 0042 	tstw e0ff0042 <task_lock>
     278:	6606           	bnes 280 <gauge_h_pip_double_strip_data_size>
     27a:	3f3c 0000      	movew #0,%sp@-
     27e:	600e           	bras 28e <unlock>
     280:	652e           	bcss 2b0 <no_user_task>
     282:	5379 e0ff 0042 	subqw #1,e0ff0042 <task_lock>
     288:	6626           	bnes 2b0 <no_user_task>
     28a:	3f3c 0001      	movew #1,%sp@-

0000028e <unlock>:
     28e:	23c8 e0ff 0006 	movel %a0,e0ff0006 <task_regs>
     294:	41f9 e0ff 0042 	lea e0ff0042 <task_lock>,%a0
     29a:	48e0 ff7e      	moveml %d0-%d7/%a1-%fp,%a0@-
     29e:	301f           	movew %sp@+,%d0
     2a0:	33df e0ff 0000 	movew %sp@+,e0ff0000 <task_sr>
     2a6:	23df e0ff 0002 	movel %sp@+,e0ff0002 <task_pc>
     2ac:	4cdf 7cfc      	moveml %sp@+,%d2-%d7/%a2-%fp

000002b0 <no_user_task>:
     2b0:	48e7 c0c0      	moveml %d0-%d1/%a0-%a1,%sp@-
     2b4:	0079 0001 e0ff 	oriw #1,e0ff005c <intTrace>
     2ba:	005c 
     2bc:	52b9 e0ff 004c 	addql #1,e0ff004c <vtimer>
     2c2:	0839 0003 e0ff 	btst #3,e0ff0bb5 <VBlankProcess+0x1>
     2c8:	0bb5 
     2ca:	6706           	beqs 2d2 <no_xgm_task>
     2cc:	4eb9 0001 49c8 	jsr 149c8 <XGM_doVBlankProcess>

000002d2 <no_xgm_task>:
     2d2:	0839 0001 e0ff 	btst #1,e0ff0bb5 <VBlankProcess+0x1>
     2d8:	0bb5 
     2da:	6706           	beqs 2e2 <no_bmp_task>
     2dc:	4eb9 0000 9554 	jsr 9554 <BMP_doVBlankProcess>

000002e2 <no_bmp_task>:
     2e2:	2079 e0ff 0bbc 	moveal e0ff0bbc <vintCB>,%a0
     2e8:	4e90           	jsr %a0@
     2ea:	0279 fffe e0ff 	andiw #-2,e0ff005c <intTrace>
     2f0:	005c 
     2f2:	4cdf 0303      	moveml %sp@+,%d0-%d1/%a0-%a1
     2f6:	4e73           	rte

000002f8 <ldiv>:
     2f8:	202f 0004      	movel %sp@(4),%d0
     2fc:	6a00 0004      	bplw 302 <ld1>
     300:	4480           	negl %d0

00000302 <ld1>:
     302:	222f 0008      	movel %sp@(8),%d1
     306:	6a00 000a      	bplw 312 <ld2>
     30a:	4481           	negl %d1
     30c:	0a2f 0080 0004 	eorib #-128,%sp@(4)

00000312 <ld2>:
     312:	6100 00a6      	bsrw 3ba <i_ldiv>
     316:	4a2f 0004      	tstb %sp@(4)
     31a:	6a00 0004      	bplw 320 <ld3>
     31e:	4480           	negl %d0

00000320 <ld3>:
     320:	4e75           	rts

00000322 <lmul>:
     322:	202f 0004      	movel %sp@(4),%d0
     326:	6a00 0004      	bplw 32c <lm1>
     32a:	4480           	negl %d0

0000032c <lm1>:
     32c:	222f 0008      	movel %sp@(8),%d1
     330:	6a00 000a      	bplw 33c <lm2>
     334:	4481           	negl %d1
     336:	0a2f 0080 0004 	eorib #-128,%sp@(4)

0000033c <lm2>:
     33c:	6100 0060      	bsrw 39e <i_lmul>
     340:	4a2f 0004      	tstb %sp@(4)
     344:	6a00 0004      	bplw 34a <lm3>
     348:	4480           	negl %d0

0000034a <lm3>:
     34a:	4e75           	rts

0000034c <lrem>:
     34c:	202f 0004      	movel %sp@(4),%d0
     350:	6a00 0004      	bplw 356 <lr1>
     354:	4480           	negl %d0

00000356 <lr1>:
     356:	222f 0008      	movel %sp@(8),%d1
     35a:	6a00 0004      	bplw 360 <lr2>
     35e:	4481           	negl %d1

00000360 <lr2>:
     360:	6100 0058      	bsrw 3ba <i_ldiv>
     364:	2001           	movel %d1,%d0
     366:	4a2f 0004      	tstb %sp@(4)
     36a:	6a00 0004      	bplw 370 <lr3>
     36e:	4480           	negl %d0

00000370 <lr3>:
     370:	4e75           	rts

00000372 <ldivu>:
     372:	202f 0004      	movel %sp@(4),%d0
     376:	222f 0008      	movel %sp@(8),%d1
     37a:	6100 003e      	bsrw 3ba <i_ldiv>
     37e:	4e75           	rts

00000380 <lmulu>:
     380:	202f 0004      	movel %sp@(4),%d0
     384:	222f 0008      	movel %sp@(8),%d1
     388:	6100 0014      	bsrw 39e <i_lmul>
     38c:	4e75           	rts

0000038e <lremu>:
     38e:	202f 0004      	movel %sp@(4),%d0
     392:	222f 0008      	movel %sp@(8),%d1
     396:	6100 0022      	bsrw 3ba <i_ldiv>
     39a:	2001           	movel %d1,%d0
     39c:	4e75           	rts

0000039e <i_lmul>:
     39e:	2443           	moveal %d3,%a2
     3a0:	3401           	movew %d1,%d2
     3a2:	c4c0           	muluw %d0,%d2
     3a4:	2601           	movel %d1,%d3
     3a6:	4843           	swap %d3
     3a8:	c6c0           	muluw %d0,%d3
     3aa:	4840           	swap %d0
     3ac:	c0c1           	muluw %d1,%d0
     3ae:	d083           	addl %d3,%d0
     3b0:	4840           	swap %d0
     3b2:	4240           	clrw %d0
     3b4:	d082           	addl %d2,%d0
     3b6:	260a           	movel %a2,%d3
     3b8:	4e75           	rts

000003ba <i_ldiv>:
     3ba:	4a81           	tstl %d1
     3bc:	6600 000c      	bnew 3ca <nz1>
     3c0:	203c 8000 0000 	movel #-2147483648,%d0
     3c6:	2200           	movel %d0,%d1
     3c8:	4e75           	rts

000003ca <nz1>:
     3ca:	2443           	moveal %d3,%a2
     3cc:	b081           	cmpl %d1,%d0
     3ce:	6200 0016      	bhiw 3e6 <norm>
     3d2:	6700 000a      	beqw 3de <is1>
     3d6:	2200           	movel %d0,%d1
     3d8:	4280           	clrl %d0
     3da:	260a           	movel %a2,%d3
     3dc:	4e75           	rts

000003de <is1>:
     3de:	7001           	moveq #1,%d0
     3e0:	4281           	clrl %d1
     3e2:	260a           	movel %a2,%d3
     3e4:	4e75           	rts

000003e6 <norm>:
     3e6:	0c81 0000 0001 	cmpil #1,%d1
     3ec:	6600 0008      	bnew 3f6 <not1>
     3f0:	4281           	clrl %d1
     3f2:	260a           	movel %a2,%d3
     3f4:	4e75           	rts

000003f6 <not1>:
     3f6:	0c80 0000 ffff 	cmpil #65535,%d0
     3fc:	6200 0012      	bhiw 410 <slow>
     400:	80c1           	divuw %d1,%d0
     402:	4840           	swap %d0
     404:	4281           	clrl %d1
     406:	3200           	movew %d0,%d1
     408:	4240           	clrw %d0
     40a:	4840           	swap %d0
     40c:	260a           	movel %a2,%d3
     40e:	4e75           	rts

00000410 <slow>:
     410:	0c81 0000 ffff 	cmpil #65535,%d1
     416:	6200 0024      	bhiw 43c <slower>
     41a:	2400           	movel %d0,%d2
     41c:	4242           	clrw %d2
     41e:	4842           	swap %d2
     420:	84c1           	divuw %d1,%d2
     422:	4283           	clrl %d3
     424:	3602           	movew %d2,%d3
     426:	4843           	swap %d3
     428:	3400           	movew %d0,%d2
     42a:	84c1           	divuw %d1,%d2
     42c:	2202           	movel %d2,%d1
     42e:	4241           	clrw %d1
     430:	4841           	swap %d1
     432:	4280           	clrl %d0
     434:	3002           	movew %d2,%d0
     436:	d083           	addl %d3,%d0
     438:	260a           	movel %a2,%d3
     43a:	4e75           	rts

0000043c <slower>:
     43c:	7401           	moveq #1,%d2
     43e:	4283           	clrl %d3

00000440 <moreadj>:
     440:	b280           	cmpl %d0,%d1
     442:	6400 000a      	bccw 44e <adj>
     446:	d482           	addl %d2,%d2
     448:	d281           	addl %d1,%d1
     44a:	6a00 fff4      	bplw 440 <moreadj>

0000044e <adj>:
     44e:	b280           	cmpl %d0,%d1
     450:	6200 0006      	bhiw 458 <ltuns>
     454:	8682           	orl %d2,%d3
     456:	9081           	subl %d1,%d0

00000458 <ltuns>:
     458:	e289           	lsrl #1,%d1
     45a:	e28a           	lsrl #1,%d2
     45c:	6600 fff0      	bnew 44e <adj>
     460:	2200           	movel %d0,%d1
     462:	2003           	movel %d3,%d0
     464:	260a           	movel %a2,%d3
     466:	4e75           	rts

00000468 <SYS_hardReset>:
     468:	46fc 2700      	movew #9984,%sr
     46c:	2e78 0000      	moveal 0 <_Start_Of_Rom>,%sp
     470:	4e67           	movel %sp,%usp
     472:	9efc 0200      	subaw #512,%sp
     476:	207c 00a1 1100 	moveal #10555648,%a0
     47c:	303c 0100      	movew #256,%d0
     480:	3080           	movew %d0,%a0@
     482:	3140 0100      	movew %d0,%a0@(256)
     486:	4ef9 0001 6dae 	jmp 16dae <_start_entry>

0000048c <SYS_setInterruptMaskLevel>:
     48c:	302f 0006      	movew %sp@(6),%d0
     490:	0240 0007      	andiw #7,%d0
     494:	33c0 e0ff 0058 	movew %d0,e0ff0058 <intLevelSave>
     49a:	0040 0020      	oriw #32,%d0
     49e:	e148           	lslw #8,%d0
     4a0:	46c0           	movew %d0,%sr
     4a2:	4e75           	rts

000004a4 <SYS_getAndSetInterruptMaskLevel>:
     4a4:	322f 0006      	movew %sp@(6),%d1
     4a8:	0241 0007      	andiw #7,%d1
     4ac:	0041 0020      	oriw #32,%d1
     4b0:	e149           	lslw #8,%d1
     4b2:	40c0           	movew %sr,%d0
     4b4:	46c1           	movew %d1,%sr
     4b6:	e048           	lsrw #8,%d0
     4b8:	0240 0007      	andiw #7,%d0
     4bc:	4e75           	rts

000004be <TSK_init>:
     4be:	33fc 0400 e0ff 	movew #1024,e0ff0000 <task_sr>
     4c4:	0000 
     4c6:	23fc 0000 0000 	movel #0,e0ff0002 <task_pc>
     4cc:	e0ff 0002 
     4d0:	33fc 0000 e0ff 	movew #0,e0ff0042 <task_lock>
     4d6:	0042 
     4d8:	303c 003b      	movew #59,%d0
     4dc:	7200           	moveq #0,%d1
     4de:	41f9 e0ff 0006 	lea e0ff0006 <task_regs>,%a0

000004e4 <.loop>:
     4e4:	10c1           	moveb %d1,%a0@+
     4e6:	51c8 fffc      	dbf %d0,4e4 <.loop>
     4ea:	4e75           	rts

000004ec <TSK_superPost>:
     4ec:	4ab9 e0ff 0002 	tstl e0ff0002 <task_pc>
     4f2:	670e           	beqs 502 <no_task>
     4f4:	4279 e0ff 0042 	clrw e0ff0042 <task_lock>
     4fa:	4a2f 0007      	tstb %sp@(7)
     4fe:	6702           	beqs 502 <no_task>
     500:	4e40           	trap #0

00000502 <no_task>:
     502:	4e75           	rts

00000504 <TSK_userYield>:
     504:	4ab9 e0ff 0002 	tstl e0ff0002 <task_pc>
     50a:	67f6           	beqs 502 <no_task>

0000050c <userYield>:
     50c:	40c0           	movew %sr,%d0
     50e:	46fc 2700      	movew #9984,%sr
     512:	3f00           	movew %d0,%sp@-
     514:	48e7 3f3e      	moveml %d2-%d7/%a2-%fp,%sp@-
     518:	41f9 e0ff 000a 	lea e0ff000a <task_regs+0x4>,%a0
     51e:	4cd8 7eff      	moveml %a0@+,%d0-%d7/%a1-%fp
     522:	2079 e0ff 0006 	moveal e0ff0006 <task_regs>,%a0
     528:	2f39 e0ff 0002 	movel e0ff0002 <task_pc>,%sp@-
     52e:	3f39 e0ff 0000 	movew e0ff0000 <task_sr>,%sp@-
     534:	4e73           	rte

00000536 <_trap_0>:
     536:	23c8 e0ff 0006 	movel %a0,e0ff0006 <task_regs>
     53c:	41f9 e0ff 0042 	lea e0ff0042 <task_lock>,%a0
     542:	48e0 ff7e      	moveml %d0-%d7/%a1-%fp,%a0@-
     546:	33df e0ff 0000 	movew %sp@+,e0ff0000 <task_sr>
     54c:	23df e0ff 0002 	movel %sp@+,e0ff0002 <task_pc>
     552:	4cdf 7cfc      	moveml %sp@+,%d2-%d7/%a2-%fp
     556:	7000           	moveq #0,%d0
     558:	4e73           	rte

0000055a <flushQueue>:
     55a:	302f 0006      	movew %sp@(6),%d0
     55e:	671c           	beqs 57c <.fq_end>
     560:	2079 e0ff 0070 	moveal e0ff0070 <dmaQueues>,%a0
     566:	227c 00c0 0004 	moveal #12582916,%a1
     56c:	5340           	subqw #1,%d0

0000056e <.fq_loop>:
     56e:	2298           	movel %a0@+,%a1@
     570:	2298           	movel %a0@+,%a1@
     572:	2298           	movel %a0@+,%a1@
     574:	3298           	movew %a0@+,%a1@
     576:	3298           	movew %a0@+,%a1@
     578:	51c8 fff4      	dbf %d0,56e <.fq_loop>

0000057c <.fq_end>:
     57c:	4e75           	rts

0000057e <KDebug_Alert>:
     57e:	206f 0004      	moveal %sp@(4),%a0
     582:	303c 9e00      	movew #-25088,%d0
     586:	1018           	moveb %a0@+,%d0
     588:	670e           	beqs 598 <KDebug_Alert+0x1a>
     58a:	227c 00c0 0004 	moveal #12582916,%a1
     590:	3280           	movew %d0,%a1@
     592:	1018           	moveb %a0@+,%d0
     594:	66fa           	bnes 590 <KDebug_Alert+0x12>
     596:	3280           	movew %d0,%a1@
     598:	4e75           	rts

0000059a <memset_>:
     59a:	302f 000e      	movew %sp@(14),%d0
     59e:	6716           	beqs 5b6 <gauge_h_bevel_blue_gain_strip_body_data_size+0x16>
     5a0:	206f 0004      	moveal %sp@(4),%a0
     5a4:	122f 000b      	moveb %sp@(11),%d1
     5a8:	0c40 000f      	cmpiw #15,%d0
     5ac:	620a           	bhis 5b8 <gauge_h_bevel_blue_gain_strip_body_data_size+0x18>
     5ae:	5340           	subqw #1,%d0
     5b0:	10c1           	moveb %d1,%a0@+
     5b2:	51c8 fffc      	dbf %d0,5b0 <gauge_h_bevel_blue_gain_strip_body_data_size+0x10>
     5b6:	4e75           	rts
     5b8:	3f02           	movew %d2,%sp@-
     5ba:	1401           	moveb %d1,%d2
     5bc:	e149           	lslw #8,%d1
     5be:	1202           	moveb %d2,%d1
     5c0:	3401           	movew %d1,%d2
     5c2:	4841           	swap %d1
     5c4:	3202           	movew %d2,%d1
     5c6:	3408           	movew %a0,%d2
     5c8:	0802 0000      	btst #0,%d2
     5cc:	6704           	beqs 5d2 <gauge_h_bevel_blue_gain_strip_body_data_size+0x32>
     5ce:	10c1           	moveb %d1,%a0@+
     5d0:	5340           	subqw #1,%d0
     5d2:	3400           	movew %d0,%d2
     5d4:	ea4a           	lsrw #5,%d2
     5d6:	6716           	beqs 5ee <gauge_h_bevel_blue_gain_strip_body_data_size+0x4e>
     5d8:	5342           	subqw #1,%d2
     5da:	20c1           	movel %d1,%a0@+
     5dc:	20c1           	movel %d1,%a0@+
     5de:	20c1           	movel %d1,%a0@+
     5e0:	20c1           	movel %d1,%a0@+
     5e2:	20c1           	movel %d1,%a0@+
     5e4:	20c1           	movel %d1,%a0@+
     5e6:	20c1           	movel %d1,%a0@+
     5e8:	20c1           	movel %d1,%a0@+
     5ea:	51ca ffee      	dbf %d2,5da <gauge_h_bevel_blue_gain_strip_body_data_size+0x3a>
     5ee:	3400           	movew %d0,%d2
     5f0:	e44a           	lsrw #2,%d2
     5f2:	0242 0007      	andiw #7,%d2
     5f6:	6708           	beqs 600 <gauge_h_bevel_blue_gain_strip_body_data_size+0x60>
     5f8:	5342           	subqw #1,%d2
     5fa:	20c1           	movel %d1,%a0@+
     5fc:	51ca fffc      	dbf %d2,5fa <gauge_h_bevel_blue_gain_strip_body_data_size+0x5a>
     600:	0240 0003      	andiw #3,%d0
     604:	6708           	beqs 60e <gauge_h_bevel_blue_gain_strip_body_data_size+0x6e>
     606:	5340           	subqw #1,%d0
     608:	10c1           	moveb %d1,%a0@+
     60a:	51c8 fffc      	dbf %d0,608 <gauge_h_bevel_blue_gain_strip_body_data_size+0x68>
     60e:	341f           	movew %sp@+,%d2
     610:	4e75           	rts

00000612 <memsetU16>:
     612:	302f 000e      	movew %sp@(14),%d0
     616:	6716           	beqs 62e <memsetU16+0x1c>
     618:	206f 0004      	moveal %sp@(4),%a0
     61c:	322f 000a      	movew %sp@(10),%d1
     620:	0c40 000f      	cmpiw #15,%d0
     624:	620a           	bhis 630 <memsetU16+0x1e>
     626:	5340           	subqw #1,%d0
     628:	30c1           	movew %d1,%a0@+
     62a:	51c8 fffc      	dbf %d0,628 <memsetU16+0x16>
     62e:	4e75           	rts
     630:	3f02           	movew %d2,%sp@-
     632:	3401           	movew %d1,%d2
     634:	4841           	swap %d1
     636:	3202           	movew %d2,%d1
     638:	0800 0000      	btst #0,%d0
     63c:	6702           	beqs 640 <memsetU16+0x2e>
     63e:	30c1           	movew %d1,%a0@+
     640:	e248           	lsrw #1,%d0
     642:	3400           	movew %d0,%d2
     644:	e64a           	lsrw #3,%d2
     646:	6716           	beqs 65e <memsetU16+0x4c>
     648:	5342           	subqw #1,%d2
     64a:	20c1           	movel %d1,%a0@+
     64c:	20c1           	movel %d1,%a0@+
     64e:	20c1           	movel %d1,%a0@+
     650:	20c1           	movel %d1,%a0@+
     652:	20c1           	movel %d1,%a0@+
     654:	20c1           	movel %d1,%a0@+
     656:	20c1           	movel %d1,%a0@+
     658:	20c1           	movel %d1,%a0@+
     65a:	51ca ffee      	dbf %d2,64a <memsetU16+0x38>
     65e:	0240 0007      	andiw #7,%d0
     662:	6708           	beqs 66c <memsetU16+0x5a>
     664:	5340           	subqw #1,%d0
     666:	20c1           	movel %d1,%a0@+
     668:	51c8 fffc      	dbf %d0,666 <memsetU16+0x54>
     66c:	341f           	movew %sp@+,%d2
     66e:	4e75           	rts

00000670 <memcpy_>:
     670:	302f 000e      	movew %sp@(14),%d0
     674:	6716           	beqs 68c <memcpy_+0x1c>
     676:	226f 0004      	moveal %sp@(4),%a1
     67a:	206f 0008      	moveal %sp@(8),%a0
     67e:	0c40 000f      	cmpiw #15,%d0
     682:	620a           	bhis 68e <memcpy_+0x1e>
     684:	5340           	subqw #1,%d0
     686:	12d8           	moveb %a0@+,%a1@+
     688:	51c8 fffc      	dbf %d0,686 <memcpy_+0x16>
     68c:	4e75           	rts
     68e:	3f02           	movew %d2,%sp@-
     690:	3208           	movew %a0,%d1
     692:	3409           	movew %a1,%d2
     694:	b342           	eorw %d1,%d2
     696:	0802 0000      	btst #0,%d2
     69a:	672e           	beqs 6ca <memcpy_+0x5a>
     69c:	3400           	movew %d0,%d2
     69e:	e64a           	lsrw #3,%d2
     6a0:	6716           	beqs 6b8 <memcpy_+0x48>
     6a2:	5342           	subqw #1,%d2
     6a4:	12d8           	moveb %a0@+,%a1@+
     6a6:	12d8           	moveb %a0@+,%a1@+
     6a8:	12d8           	moveb %a0@+,%a1@+
     6aa:	12d8           	moveb %a0@+,%a1@+
     6ac:	12d8           	moveb %a0@+,%a1@+
     6ae:	12d8           	moveb %a0@+,%a1@+
     6b0:	12d8           	moveb %a0@+,%a1@+
     6b2:	12d8           	moveb %a0@+,%a1@+
     6b4:	51ca ffee      	dbf %d2,6a4 <memcpy_+0x34>
     6b8:	0240 0007      	andiw #7,%d0
     6bc:	6708           	beqs 6c6 <memcpy_+0x56>
     6be:	5340           	subqw #1,%d0
     6c0:	12d8           	moveb %a0@+,%a1@+
     6c2:	51c8 fffc      	dbf %d0,6c0 <memcpy_+0x50>
     6c6:	341f           	movew %sp@+,%d2
     6c8:	4e75           	rts
     6ca:	0801 0000      	btst #0,%d1
     6ce:	6704           	beqs 6d4 <memcpy_+0x64>
     6d0:	12d8           	moveb %a0@+,%a1@+
     6d2:	5340           	subqw #1,%d0
     6d4:	3400           	movew %d0,%d2
     6d6:	ea4a           	lsrw #5,%d2
     6d8:	6716           	beqs 6f0 <memcpy_+0x80>
     6da:	5342           	subqw #1,%d2
     6dc:	22d8           	movel %a0@+,%a1@+
     6de:	22d8           	movel %a0@+,%a1@+
     6e0:	22d8           	movel %a0@+,%a1@+
     6e2:	22d8           	movel %a0@+,%a1@+
     6e4:	22d8           	movel %a0@+,%a1@+
     6e6:	22d8           	movel %a0@+,%a1@+
     6e8:	22d8           	movel %a0@+,%a1@+
     6ea:	22d8           	movel %a0@+,%a1@+
     6ec:	51ca ffee      	dbf %d2,6dc <memcpy_+0x6c>
     6f0:	3400           	movew %d0,%d2
     6f2:	e44a           	lsrw #2,%d2
     6f4:	0242 0007      	andiw #7,%d2
     6f8:	6708           	beqs 702 <memcpy_+0x92>
     6fa:	5342           	subqw #1,%d2
     6fc:	22d8           	movel %a0@+,%a1@+
     6fe:	51ca fffc      	dbf %d2,6fc <memcpy_+0x8c>
     702:	0240 0003      	andiw #3,%d0
     706:	6708           	beqs 710 <memcpy_+0xa0>
     708:	5340           	subqw #1,%d0
     70a:	12d8           	moveb %a0@+,%a1@+
     70c:	51c8 fffc      	dbf %d0,70a <memcpy_+0x9a>
     710:	341f           	movew %sp@+,%d2
     712:	4e75           	rts

00000714 <aplib_unpack>:
     714:	4cef 0300 0004 	moveml %sp@(4),%a0-%a1

0000071a <aplib_decrunch>:
     71a:	48e7 3c3e      	moveml %d2-%d5/%a2-%fp,%sp@-
     71e:	47f8 7d00      	lea 7d00 <layout_free_buffers.lto_priv.0+0x30c>,%a3
     722:	49f8 0500      	lea 500 <TSK_superPost+0x14>,%a4
     726:	4bf8 0080      	lea 80 <gauge_blue_palette_data_size>,%a5
     72a:	2c49           	moveal %a1,%fp
     72c:	7680           	moveq #-128,%d3

0000072e <.copy_byte>:
     72e:	12d8           	moveb %a0@+,%a1@+

00000730 <.next_sequence_init>:
     730:	7202           	moveq #2,%d1

00000732 <.next_sequence>:
     732:	6168           	bsrs 79c <.get_bit>
     734:	64f8           	bccs 72e <.copy_byte>
     736:	6164           	bsrs 79c <.get_bit>
     738:	642a           	bccs 764 <.code_pair>
     73a:	7000           	moveq #0,%d0
     73c:	615e           	bsrs 79c <.get_bit>
     73e:	6416           	bccs 756 <.short_match>
     740:	7a03           	moveq #3,%d5

00000742 <.get_3_bits>:
     742:	6158           	bsrs 79c <.get_bit>
     744:	e390           	roxll #1,%d0
     746:	51cd fffa      	dbf %d5,742 <.get_3_bits>
     74a:	6706           	beqs 752 <.write_byte>
     74c:	2449           	moveal %a1,%a2
     74e:	95c0           	subal %d0,%a2
     750:	1012           	moveb %a2@,%d0

00000752 <.write_byte>:
     752:	12c0           	moveb %d0,%a1@+
     754:	60da           	bras 730 <.next_sequence_init>

00000756 <.short_match>:
     756:	7403           	moveq #3,%d2
     758:	1018           	moveb %a0@+,%d0
     75a:	e208           	lsrb #1,%d0
     75c:	6754           	beqs 7b2 <.end_decrunch>
     75e:	652a           	bcss 78a <.domatch_new_lastpos>
     760:	7402           	moveq #2,%d2
     762:	6026           	bras 78a <.domatch_new_lastpos>

00000764 <.code_pair>:
     764:	6140           	bsrs 7a6 <.decode_gamma>
     766:	9481           	subl %d1,%d2
     768:	6606           	bnes 770 <.normal_code_pair>
     76a:	2004           	movel %d4,%d0
     76c:	6138           	bsrs 7a6 <.decode_gamma>
     76e:	601c           	bras 78c <.copy_code_pair>

00000770 <.normal_code_pair>:
     770:	5382           	subql #1,%d2
     772:	e18a           	lsll #8,%d2
     774:	1418           	moveb %a0@+,%d2
     776:	2002           	movel %d2,%d0
     778:	612c           	bsrs 7a6 <.decode_gamma>
     77a:	b08b           	cmpl %a3,%d0
     77c:	6c08           	bges 786 <.domatch_with_2inc>

0000077e <.compare_1280>:
     77e:	b08c           	cmpl %a4,%d0
     780:	6c06           	bges 788 <.domatch_with_inc>

00000782 <.compare_128>:
     782:	b08d           	cmpl %a5,%d0
     784:	6c04           	bges 78a <.domatch_new_lastpos>

00000786 <.domatch_with_2inc>:
     786:	5282           	addql #1,%d2

00000788 <.domatch_with_inc>:
     788:	5282           	addql #1,%d2

0000078a <.domatch_new_lastpos>:
     78a:	2800           	movel %d0,%d4

0000078c <.copy_code_pair>:
     78c:	5382           	subql #1,%d2
     78e:	2449           	moveal %a1,%a2
     790:	95c0           	subal %d0,%a2

00000792 <.loop_do_copy>:
     792:	12da           	moveb %a2@+,%a1@+
     794:	51ca fffc      	dbf %d2,792 <.loop_do_copy>
     798:	7201           	moveq #1,%d1
     79a:	6096           	bras 732 <.next_sequence>

0000079c <.get_bit>:
     79c:	d603           	addb %d3,%d3
     79e:	6604           	bnes 7a4 <.still_bits_left>
     7a0:	1618           	moveb %a0@+,%d3
     7a2:	d703           	addxb %d3,%d3

000007a4 <.still_bits_left>:
     7a4:	4e75           	rts

000007a6 <.decode_gamma>:
     7a6:	7401           	moveq #1,%d2

000007a8 <.get_more_gamma>:
     7a8:	61f2           	bsrs 79c <.get_bit>
     7aa:	d582           	addxl %d2,%d2
     7ac:	61ee           	bsrs 79c <.get_bit>
     7ae:	65f8           	bcss 7a8 <.get_more_gamma>
     7b0:	4e75           	rts

000007b2 <.end_decrunch>:
     7b2:	2009           	movel %a1,%d0
     7b4:	908e           	subl %fp,%d0
     7b6:	4cdf 7c3c      	moveml %sp@+,%d2-%d5/%a2-%fp
     7ba:	4e75           	rts

000007bc <lz4w_unpack>:
     7bc:	4cef 0300 0004 	moveml %sp@(4),%a0-%a1

000007c2 <lz4w_unpack_a>:
     7c2:	48e7 0078      	moveml %a1-%a4,%sp@-
     7c6:	47fa 0014      	lea %pc@(7dc <.jump_table>),%a3
     7ca:	7200           	moveq #0,%d1
     7cc:	7000           	moveq #0,%d0
     7ce:	1018           	moveb %a0@+,%d0
     7d0:	1218           	moveb %a0@+,%d1
     7d2:	d040           	addw %d0,%d0
     7d4:	d040           	addw %d0,%d0
     7d6:	2873 0000      	moveal %a3@(0,%d0:w),%a4
     7da:	4ed4           	jmp %a4@

000007dc <.jump_table>:
     7dc:	0000 1060      	orib #96,%d0
     7e0:	0000 14a0      	orib #-96,%d0
     7e4:	0000 14fa      	orib #-6,%d0
     7e8:	0000 1558      	orib #88,%d0
     7ec:	0000 15ba      	orib #-70,%d0
     7f0:	0000 1620      	orib #32,%d0
     7f4:	0000 168a      	orib #-118,%d0
     7f8:	0000 16f8      	orib #-8,%d0
     7fc:	0000 176a      	orib #106,%d0
     800:	0000 17e0      	orib #-32,%d0
     804:	0000 185a      	orib #90,%d0
     808:	0000 18d8      	orib #-40,%d0
     80c:	0000 195a      	orib #90,%d0
     810:	0000 19e0      	orib #-32,%d0
     814:	0000 1a6a      	orib #106,%d0
     818:	0000 1af8      	orib #-8,%d0
     81c:	0000 1048      	orib #72,%d0
     820:	0000 14cc      	orib #-52,%d0
     824:	0000 1528      	orib #40,%d0
     828:	0000 1588      	orib #-120,%d0
     82c:	0000 15ec      	orib #-20,%d0
     830:	0000 1654      	orib #84,%d0
     834:	0000 16c0      	orib #-64,%d0
     838:	0000 1730      	orib #48,%d0
     83c:	0000 17a4      	orib #-92,%d0
     840:	0000 181c      	orib #28,%d0
     844:	0000 1898      	orib #-104,%d0
     848:	0000 1918      	orib #24,%d0
     84c:	0000 199c      	orib #-100,%d0
     850:	0000 1a24      	orib #36,%d0
     854:	0000 1ab0      	orib #-80,%d0
     858:	0000 1b40      	orib #64,%d0
     85c:	0000 1022      	orib #34,%d0
     860:	0000 149e      	orib #-98,%d0
     864:	0000 14f8      	orib #-8,%d0
     868:	0000 1556      	orib #86,%d0
     86c:	0000 15b8      	orib #-72,%d0
     870:	0000 161e      	orib #30,%d0
     874:	0000 1688      	orib #-120,%d0
     878:	0000 16f6      	orib #-10,%d0
     87c:	0000 1768      	orib #104,%d0
     880:	0000 17de      	orib #-34,%d0
     884:	0000 1858      	orib #88,%d0
     888:	0000 18d6      	orib #-42,%d0
     88c:	0000 1958      	orib #88,%d0
     890:	0000 19de      	orib #-34,%d0
     894:	0000 1a68      	orib #104,%d0
     898:	0000 1af6      	orib #-10,%d0
     89c:	0000 1046      	orib #70,%d0
     8a0:	0000 14ca      	orib #-54,%d0
     8a4:	0000 1526      	orib #38,%d0
     8a8:	0000 1586      	orib #-122,%d0
     8ac:	0000 15ea      	orib #-22,%d0
     8b0:	0000 1652      	orib #82,%d0
     8b4:	0000 16be      	orib #-66,%d0
     8b8:	0000 172e      	orib #46,%d0
     8bc:	0000 17a2      	orib #-94,%d0
     8c0:	0000 181a      	orib #26,%d0
     8c4:	0000 1896      	orib #-106,%d0
     8c8:	0000 1916      	orib #22,%d0
     8cc:	0000 199a      	orib #-102,%d0
     8d0:	0000 1a22      	orib #34,%d0
     8d4:	0000 1aae      	orib #-82,%d0
     8d8:	0000 1b3e      	orib #62,%d0
     8dc:	0000 1020      	orib #32,%d0
     8e0:	0000 149c      	orib #-100,%d0
     8e4:	0000 14f6      	orib #-10,%d0
     8e8:	0000 1554      	orib #84,%d0
     8ec:	0000 15b6      	orib #-74,%d0
     8f0:	0000 161c      	orib #28,%d0
     8f4:	0000 1686      	orib #-122,%d0
     8f8:	0000 16f4      	orib #-12,%d0
     8fc:	0000 1766      	orib #102,%d0
     900:	0000 17dc      	orib #-36,%d0
     904:	0000 1856      	orib #86,%d0
     908:	0000 18d4      	orib #-44,%d0
     90c:	0000 1956      	orib #86,%d0
     910:	0000 19dc      	orib #-36,%d0
     914:	0000 1a66      	orib #102,%d0
     918:	0000 1af4      	orib #-12,%d0
     91c:	0000 1044      	orib #68,%d0
     920:	0000 14c8      	orib #-56,%d0
     924:	0000 1524      	orib #36,%d0
     928:	0000 1584      	orib #-124,%d0
     92c:	0000 15e8      	orib #-24,%d0
     930:	0000 1650      	orib #80,%d0
     934:	0000 16bc      	orib #-68,%d0
     938:	0000 172c      	orib #44,%d0
     93c:	0000 17a0      	orib #-96,%d0
     940:	0000 1818      	orib #24,%d0
     944:	0000 1894      	orib #-108,%d0
     948:	0000 1914      	orib #20,%d0
     94c:	0000 1998      	orib #-104,%d0
     950:	0000 1a20      	orib #32,%d0
     954:	0000 1aac      	orib #-84,%d0
     958:	0000 1b3c      	orib #60,%d0
     95c:	0000 101e      	orib #30,%d0
     960:	0000 149a      	orib #-102,%d0
     964:	0000 14f4      	orib #-12,%d0
     968:	0000 1552      	orib #82,%d0
     96c:	0000 15b4      	orib #-76,%d0
     970:	0000 161a      	orib #26,%d0
     974:	0000 1684      	orib #-124,%d0
     978:	0000 16f2      	orib #-14,%d0
     97c:	0000 1764      	orib #100,%d0
     980:	0000 17da      	orib #-38,%d0
     984:	0000 1854      	orib #84,%d0
     988:	0000 18d2      	orib #-46,%d0
     98c:	0000 1954      	orib #84,%d0
     990:	0000 19da      	orib #-38,%d0
     994:	0000 1a64      	orib #100,%d0
     998:	0000 1af2      	orib #-14,%d0
     99c:	0000 1042      	orib #66,%d0
     9a0:	0000 14c6      	orib #-58,%d0
     9a4:	0000 1522      	orib #34,%d0
     9a8:	0000 1582      	orib #-126,%d0
     9ac:	0000 15e6      	orib #-26,%d0
     9b0:	0000 164e      	orib #78,%d0
     9b4:	0000 16ba      	orib #-70,%d0
     9b8:	0000 172a      	orib #42,%d0
     9bc:	0000 179e      	orib #-98,%d0
     9c0:	0000 1816      	orib #22,%d0
     9c4:	0000 1892      	orib #-110,%d0
     9c8:	0000 1912      	orib #18,%d0
     9cc:	0000 1996      	orib #-106,%d0
     9d0:	0000 1a1e      	orib #30,%d0
     9d4:	0000 1aaa      	orib #-86,%d0
     9d8:	0000 1b3a      	orib #58,%d0
     9dc:	0000 101c      	orib #28,%d0
     9e0:	0000 1498      	orib #-104,%d0
     9e4:	0000 14f2      	orib #-14,%d0
     9e8:	0000 1550      	orib #80,%d0
     9ec:	0000 15b2      	orib #-78,%d0
     9f0:	0000 1618      	orib #24,%d0
     9f4:	0000 1682      	orib #-126,%d0
     9f8:	0000 16f0      	orib #-16,%d0
     9fc:	0000 1762      	orib #98,%d0
     a00:	0000 17d8      	orib #-40,%d0
     a04:	0000 1852      	orib #82,%d0
     a08:	0000 18d0      	orib #-48,%d0
     a0c:	0000 1952      	orib #82,%d0
     a10:	0000 19d8      	orib #-40,%d0
     a14:	0000 1a62      	orib #98,%d0
     a18:	0000 1af0      	orib #-16,%d0
     a1c:	0000 1040      	orib #64,%d0
     a20:	0000 14c4      	orib #-60,%d0
     a24:	0000 1520      	orib #32,%d0
     a28:	0000 1580      	orib #-128,%d0
     a2c:	0000 15e4      	orib #-28,%d0
     a30:	0000 164c      	orib #76,%d0
     a34:	0000 16b8      	orib #-72,%d0
     a38:	0000 1728      	orib #40,%d0
     a3c:	0000 179c      	orib #-100,%d0
     a40:	0000 1814      	orib #20,%d0
     a44:	0000 1890      	orib #-112,%d0
     a48:	0000 1910      	orib #16,%d0
     a4c:	0000 1994      	orib #-108,%d0
     a50:	0000 1a1c      	orib #28,%d0
     a54:	0000 1aa8      	orib #-88,%d0
     a58:	0000 1b38      	orib #56,%d0
     a5c:	0000 101a      	orib #26,%d0
     a60:	0000 1496      	orib #-106,%d0
     a64:	0000 14f0      	orib #-16,%d0
     a68:	0000 154e      	orib #78,%d0
     a6c:	0000 15b0      	orib #-80,%d0
     a70:	0000 1616      	orib #22,%d0
     a74:	0000 1680      	orib #-128,%d0
     a78:	0000 16ee      	orib #-18,%d0
     a7c:	0000 1760      	orib #96,%d0
     a80:	0000 17d6      	orib #-42,%d0
     a84:	0000 1850      	orib #80,%d0
     a88:	0000 18ce      	orib #-50,%d0
     a8c:	0000 1950      	orib #80,%d0
     a90:	0000 19d6      	orib #-42,%d0
     a94:	0000 1a60      	orib #96,%d0
     a98:	0000 1aee      	orib #-18,%d0
     a9c:	0000 103e      	orib #62,%d0
     aa0:	0000 14c2      	orib #-62,%d0
     aa4:	0000 151e      	orib #30,%d0
     aa8:	0000 157e      	orib #126,%d0
     aac:	0000 15e2      	orib #-30,%d0
     ab0:	0000 164a      	orib #74,%d0
     ab4:	0000 16b6      	orib #-74,%d0
     ab8:	0000 1726      	orib #38,%d0
     abc:	0000 179a      	orib #-102,%d0
     ac0:	0000 1812      	orib #18,%d0
     ac4:	0000 188e      	orib #-114,%d0
     ac8:	0000 190e      	orib #14,%d0
     acc:	0000 1992      	orib #-110,%d0
     ad0:	0000 1a1a      	orib #26,%d0
     ad4:	0000 1aa6      	orib #-90,%d0
     ad8:	0000 1b36      	orib #54,%d0
     adc:	0000 1018      	orib #24,%d0
     ae0:	0000 1494      	orib #-108,%d0
     ae4:	0000 14ee      	orib #-18,%d0
     ae8:	0000 154c      	orib #76,%d0
     aec:	0000 15ae      	orib #-82,%d0
     af0:	0000 1614      	orib #20,%d0
     af4:	0000 167e      	orib #126,%d0
     af8:	0000 16ec      	orib #-20,%d0
     afc:	0000 175e      	orib #94,%d0
     b00:	0000 17d4      	orib #-44,%d0
     b04:	0000 184e      	orib #78,%d0
     b08:	0000 18cc      	orib #-52,%d0
     b0c:	0000 194e      	orib #78,%d0
     b10:	0000 19d4      	orib #-44,%d0
     b14:	0000 1a5e      	orib #94,%d0
     b18:	0000 1aec      	orib #-20,%d0
     b1c:	0000 103c      	orib #60,%d0
     b20:	0000 14c0      	orib #-64,%d0
     b24:	0000 151c      	orib #28,%d0
     b28:	0000 157c      	orib #124,%d0
     b2c:	0000 15e0      	orib #-32,%d0
     b30:	0000 1648      	orib #72,%d0
     b34:	0000 16b4      	orib #-76,%d0
     b38:	0000 1724      	orib #36,%d0
     b3c:	0000 1798      	orib #-104,%d0
     b40:	0000 1810      	orib #16,%d0
     b44:	0000 188c      	orib #-116,%d0
     b48:	0000 190c      	orib #12,%d0
     b4c:	0000 1990      	orib #-112,%d0
     b50:	0000 1a18      	orib #24,%d0
     b54:	0000 1aa4      	orib #-92,%d0
     b58:	0000 1b34      	orib #52,%d0
     b5c:	0000 1016      	orib #22,%d0
     b60:	0000 1492      	orib #-110,%d0
     b64:	0000 14ec      	orib #-20,%d0
     b68:	0000 154a      	orib #74,%d0
     b6c:	0000 15ac      	orib #-84,%d0
     b70:	0000 1612      	orib #18,%d0
     b74:	0000 167c      	orib #124,%d0
     b78:	0000 16ea      	orib #-22,%d0
     b7c:	0000 175c      	orib #92,%d0
     b80:	0000 17d2      	orib #-46,%d0
     b84:	0000 184c      	orib #76,%d0
     b88:	0000 18ca      	orib #-54,%d0
     b8c:	0000 194c      	orib #76,%d0
     b90:	0000 19d2      	orib #-46,%d0
     b94:	0000 1a5c      	orib #92,%d0
     b98:	0000 1aea      	orib #-22,%d0
     b9c:	0000 103a      	orib #58,%d0
     ba0:	0000 14be      	orib #-66,%d0
     ba4:	0000 151a      	orib #26,%d0
     ba8:	0000 157a      	orib #122,%d0
     bac:	0000 15de      	orib #-34,%d0
     bb0:	0000 1646      	orib #70,%d0
     bb4:	0000 16b2      	orib #-78,%d0
     bb8:	0000 1722      	orib #34,%d0
     bbc:	0000 1796      	orib #-106,%d0
     bc0:	0000 180e      	orib #14,%d0
     bc4:	0000 188a      	orib #-118,%d0
     bc8:	0000 190a      	orib #10,%d0
     bcc:	0000 198e      	orib #-114,%d0
     bd0:	0000 1a16      	orib #22,%d0
     bd4:	0000 1aa2      	orib #-94,%d0
     bd8:	0000 1b32      	orib #50,%d0
     bdc:	22da           	movel %a2@+,%a1@+
     bde:	22da           	movel %a2@+,%a1@+
     be0:	22da           	movel %a2@+,%a1@+
     be2:	22da           	movel %a2@+,%a1@+
     be4:	22da           	movel %a2@+,%a1@+
     be6:	22da           	movel %a2@+,%a1@+
     be8:	22da           	movel %a2@+,%a1@+
     bea:	22da           	movel %a2@+,%a1@+
     bec:	22da           	movel %a2@+,%a1@+
     bee:	22da           	movel %a2@+,%a1@+
     bf0:	22da           	movel %a2@+,%a1@+
     bf2:	22da           	movel %a2@+,%a1@+
     bf4:	22da           	movel %a2@+,%a1@+
     bf6:	22da           	movel %a2@+,%a1@+
     bf8:	22da           	movel %a2@+,%a1@+
     bfa:	22da           	movel %a2@+,%a1@+
     bfc:	22da           	movel %a2@+,%a1@+
     bfe:	22da           	movel %a2@+,%a1@+
     c00:	22da           	movel %a2@+,%a1@+
     c02:	22da           	movel %a2@+,%a1@+
     c04:	22da           	movel %a2@+,%a1@+
     c06:	22da           	movel %a2@+,%a1@+
     c08:	22da           	movel %a2@+,%a1@+
     c0a:	22da           	movel %a2@+,%a1@+
     c0c:	22da           	movel %a2@+,%a1@+
     c0e:	22da           	movel %a2@+,%a1@+
     c10:	22da           	movel %a2@+,%a1@+
     c12:	22da           	movel %a2@+,%a1@+
     c14:	22da           	movel %a2@+,%a1@+
     c16:	22da           	movel %a2@+,%a1@+
     c18:	22da           	movel %a2@+,%a1@+
     c1a:	22da           	movel %a2@+,%a1@+
     c1c:	22da           	movel %a2@+,%a1@+
     c1e:	22da           	movel %a2@+,%a1@+
     c20:	22da           	movel %a2@+,%a1@+
     c22:	22da           	movel %a2@+,%a1@+
     c24:	22da           	movel %a2@+,%a1@+
     c26:	22da           	movel %a2@+,%a1@+
     c28:	22da           	movel %a2@+,%a1@+
     c2a:	22da           	movel %a2@+,%a1@+
     c2c:	22da           	movel %a2@+,%a1@+
     c2e:	22da           	movel %a2@+,%a1@+
     c30:	22da           	movel %a2@+,%a1@+
     c32:	22da           	movel %a2@+,%a1@+
     c34:	22da           	movel %a2@+,%a1@+
     c36:	22da           	movel %a2@+,%a1@+
     c38:	22da           	movel %a2@+,%a1@+
     c3a:	22da           	movel %a2@+,%a1@+
     c3c:	22da           	movel %a2@+,%a1@+
     c3e:	22da           	movel %a2@+,%a1@+
     c40:	22da           	movel %a2@+,%a1@+
     c42:	22da           	movel %a2@+,%a1@+
     c44:	22da           	movel %a2@+,%a1@+
     c46:	22da           	movel %a2@+,%a1@+
     c48:	22da           	movel %a2@+,%a1@+
     c4a:	22da           	movel %a2@+,%a1@+
     c4c:	22da           	movel %a2@+,%a1@+
     c4e:	22da           	movel %a2@+,%a1@+
     c50:	22da           	movel %a2@+,%a1@+
     c52:	22da           	movel %a2@+,%a1@+
     c54:	22da           	movel %a2@+,%a1@+
     c56:	22da           	movel %a2@+,%a1@+
     c58:	22da           	movel %a2@+,%a1@+
     c5a:	22da           	movel %a2@+,%a1@+
     c5c:	22da           	movel %a2@+,%a1@+
     c5e:	22da           	movel %a2@+,%a1@+
     c60:	22da           	movel %a2@+,%a1@+
     c62:	22da           	movel %a2@+,%a1@+
     c64:	22da           	movel %a2@+,%a1@+
     c66:	22da           	movel %a2@+,%a1@+
     c68:	22da           	movel %a2@+,%a1@+
     c6a:	22da           	movel %a2@+,%a1@+
     c6c:	22da           	movel %a2@+,%a1@+
     c6e:	22da           	movel %a2@+,%a1@+
     c70:	22da           	movel %a2@+,%a1@+
     c72:	22da           	movel %a2@+,%a1@+
     c74:	22da           	movel %a2@+,%a1@+
     c76:	22da           	movel %a2@+,%a1@+
     c78:	22da           	movel %a2@+,%a1@+
     c7a:	22da           	movel %a2@+,%a1@+
     c7c:	22da           	movel %a2@+,%a1@+
     c7e:	22da           	movel %a2@+,%a1@+
     c80:	22da           	movel %a2@+,%a1@+
     c82:	22da           	movel %a2@+,%a1@+
     c84:	22da           	movel %a2@+,%a1@+
     c86:	22da           	movel %a2@+,%a1@+
     c88:	22da           	movel %a2@+,%a1@+
     c8a:	22da           	movel %a2@+,%a1@+
     c8c:	22da           	movel %a2@+,%a1@+
     c8e:	22da           	movel %a2@+,%a1@+
     c90:	22da           	movel %a2@+,%a1@+
     c92:	22da           	movel %a2@+,%a1@+
     c94:	22da           	movel %a2@+,%a1@+
     c96:	22da           	movel %a2@+,%a1@+
     c98:	22da           	movel %a2@+,%a1@+
     c9a:	22da           	movel %a2@+,%a1@+
     c9c:	22da           	movel %a2@+,%a1@+
     c9e:	22da           	movel %a2@+,%a1@+
     ca0:	22da           	movel %a2@+,%a1@+
     ca2:	22da           	movel %a2@+,%a1@+
     ca4:	22da           	movel %a2@+,%a1@+
     ca6:	22da           	movel %a2@+,%a1@+
     ca8:	22da           	movel %a2@+,%a1@+
     caa:	22da           	movel %a2@+,%a1@+
     cac:	22da           	movel %a2@+,%a1@+
     cae:	22da           	movel %a2@+,%a1@+
     cb0:	22da           	movel %a2@+,%a1@+
     cb2:	22da           	movel %a2@+,%a1@+
     cb4:	22da           	movel %a2@+,%a1@+
     cb6:	22da           	movel %a2@+,%a1@+
     cb8:	22da           	movel %a2@+,%a1@+
     cba:	22da           	movel %a2@+,%a1@+
     cbc:	22da           	movel %a2@+,%a1@+
     cbe:	22da           	movel %a2@+,%a1@+
     cc0:	22da           	movel %a2@+,%a1@+
     cc2:	22da           	movel %a2@+,%a1@+
     cc4:	22da           	movel %a2@+,%a1@+
     cc6:	22da           	movel %a2@+,%a1@+
     cc8:	22da           	movel %a2@+,%a1@+
     cca:	22da           	movel %a2@+,%a1@+
     ccc:	22da           	movel %a2@+,%a1@+
     cce:	22da           	movel %a2@+,%a1@+
     cd0:	22da           	movel %a2@+,%a1@+
     cd2:	22da           	movel %a2@+,%a1@+
     cd4:	22da           	movel %a2@+,%a1@+
     cd6:	22da           	movel %a2@+,%a1@+
     cd8:	22da           	movel %a2@+,%a1@+

00000cda <.lmr_len_01>:
     cda:	22da           	movel %a2@+,%a1@+
     cdc:	32da           	movew %a2@+,%a1@+
     cde:	7200           	moveq #0,%d1
     ce0:	7000           	moveq #0,%d0
     ce2:	1018           	moveb %a0@+,%d0
     ce4:	1218           	moveb %a0@+,%d1
     ce6:	d040           	addw %d0,%d0
     ce8:	d040           	addw %d0,%d0
     cea:	2873 0000      	moveal %a3@(0,%d0:w),%a4
     cee:	4ed4           	jmp %a4@
     cf0:	22da           	movel %a2@+,%a1@+
     cf2:	22da           	movel %a2@+,%a1@+
     cf4:	22da           	movel %a2@+,%a1@+
     cf6:	22da           	movel %a2@+,%a1@+
     cf8:	22da           	movel %a2@+,%a1@+
     cfa:	22da           	movel %a2@+,%a1@+
     cfc:	22da           	movel %a2@+,%a1@+
     cfe:	22da           	movel %a2@+,%a1@+
     d00:	22da           	movel %a2@+,%a1@+
     d02:	22da           	movel %a2@+,%a1@+
     d04:	22da           	movel %a2@+,%a1@+
     d06:	22da           	movel %a2@+,%a1@+
     d08:	22da           	movel %a2@+,%a1@+
     d0a:	22da           	movel %a2@+,%a1@+
     d0c:	22da           	movel %a2@+,%a1@+
     d0e:	22da           	movel %a2@+,%a1@+
     d10:	22da           	movel %a2@+,%a1@+
     d12:	22da           	movel %a2@+,%a1@+
     d14:	22da           	movel %a2@+,%a1@+
     d16:	22da           	movel %a2@+,%a1@+
     d18:	22da           	movel %a2@+,%a1@+
     d1a:	22da           	movel %a2@+,%a1@+
     d1c:	22da           	movel %a2@+,%a1@+
     d1e:	22da           	movel %a2@+,%a1@+
     d20:	22da           	movel %a2@+,%a1@+
     d22:	22da           	movel %a2@+,%a1@+
     d24:	22da           	movel %a2@+,%a1@+
     d26:	22da           	movel %a2@+,%a1@+
     d28:	22da           	movel %a2@+,%a1@+
     d2a:	22da           	movel %a2@+,%a1@+
     d2c:	22da           	movel %a2@+,%a1@+
     d2e:	22da           	movel %a2@+,%a1@+
     d30:	22da           	movel %a2@+,%a1@+
     d32:	22da           	movel %a2@+,%a1@+
     d34:	22da           	movel %a2@+,%a1@+
     d36:	22da           	movel %a2@+,%a1@+
     d38:	22da           	movel %a2@+,%a1@+
     d3a:	22da           	movel %a2@+,%a1@+
     d3c:	22da           	movel %a2@+,%a1@+
     d3e:	22da           	movel %a2@+,%a1@+
     d40:	22da           	movel %a2@+,%a1@+
     d42:	22da           	movel %a2@+,%a1@+
     d44:	22da           	movel %a2@+,%a1@+
     d46:	22da           	movel %a2@+,%a1@+
     d48:	22da           	movel %a2@+,%a1@+
     d4a:	22da           	movel %a2@+,%a1@+
     d4c:	22da           	movel %a2@+,%a1@+
     d4e:	22da           	movel %a2@+,%a1@+
     d50:	22da           	movel %a2@+,%a1@+
     d52:	22da           	movel %a2@+,%a1@+
     d54:	22da           	movel %a2@+,%a1@+
     d56:	22da           	movel %a2@+,%a1@+
     d58:	22da           	movel %a2@+,%a1@+
     d5a:	22da           	movel %a2@+,%a1@+
     d5c:	22da           	movel %a2@+,%a1@+
     d5e:	22da           	movel %a2@+,%a1@+
     d60:	22da           	movel %a2@+,%a1@+
     d62:	22da           	movel %a2@+,%a1@+
     d64:	22da           	movel %a2@+,%a1@+
     d66:	22da           	movel %a2@+,%a1@+
     d68:	22da           	movel %a2@+,%a1@+
     d6a:	22da           	movel %a2@+,%a1@+
     d6c:	22da           	movel %a2@+,%a1@+
     d6e:	22da           	movel %a2@+,%a1@+
     d70:	22da           	movel %a2@+,%a1@+
     d72:	22da           	movel %a2@+,%a1@+
     d74:	22da           	movel %a2@+,%a1@+
     d76:	22da           	movel %a2@+,%a1@+
     d78:	22da           	movel %a2@+,%a1@+
     d7a:	22da           	movel %a2@+,%a1@+
     d7c:	22da           	movel %a2@+,%a1@+
     d7e:	22da           	movel %a2@+,%a1@+
     d80:	22da           	movel %a2@+,%a1@+
     d82:	22da           	movel %a2@+,%a1@+
     d84:	22da           	movel %a2@+,%a1@+
     d86:	22da           	movel %a2@+,%a1@+
     d88:	22da           	movel %a2@+,%a1@+
     d8a:	22da           	movel %a2@+,%a1@+
     d8c:	22da           	movel %a2@+,%a1@+
     d8e:	22da           	movel %a2@+,%a1@+
     d90:	22da           	movel %a2@+,%a1@+
     d92:	22da           	movel %a2@+,%a1@+
     d94:	22da           	movel %a2@+,%a1@+
     d96:	22da           	movel %a2@+,%a1@+
     d98:	22da           	movel %a2@+,%a1@+
     d9a:	22da           	movel %a2@+,%a1@+
     d9c:	22da           	movel %a2@+,%a1@+
     d9e:	22da           	movel %a2@+,%a1@+
     da0:	22da           	movel %a2@+,%a1@+
     da2:	22da           	movel %a2@+,%a1@+
     da4:	22da           	movel %a2@+,%a1@+
     da6:	22da           	movel %a2@+,%a1@+
     da8:	22da           	movel %a2@+,%a1@+
     daa:	22da           	movel %a2@+,%a1@+
     dac:	22da           	movel %a2@+,%a1@+
     dae:	22da           	movel %a2@+,%a1@+
     db0:	22da           	movel %a2@+,%a1@+
     db2:	22da           	movel %a2@+,%a1@+
     db4:	22da           	movel %a2@+,%a1@+
     db6:	22da           	movel %a2@+,%a1@+
     db8:	22da           	movel %a2@+,%a1@+
     dba:	22da           	movel %a2@+,%a1@+
     dbc:	22da           	movel %a2@+,%a1@+
     dbe:	22da           	movel %a2@+,%a1@+
     dc0:	22da           	movel %a2@+,%a1@+
     dc2:	22da           	movel %a2@+,%a1@+
     dc4:	22da           	movel %a2@+,%a1@+
     dc6:	22da           	movel %a2@+,%a1@+
     dc8:	22da           	movel %a2@+,%a1@+
     dca:	22da           	movel %a2@+,%a1@+
     dcc:	22da           	movel %a2@+,%a1@+
     dce:	22da           	movel %a2@+,%a1@+
     dd0:	22da           	movel %a2@+,%a1@+
     dd2:	22da           	movel %a2@+,%a1@+
     dd4:	22da           	movel %a2@+,%a1@+
     dd6:	22da           	movel %a2@+,%a1@+
     dd8:	22da           	movel %a2@+,%a1@+
     dda:	22da           	movel %a2@+,%a1@+
     ddc:	22da           	movel %a2@+,%a1@+
     dde:	22da           	movel %a2@+,%a1@+
     de0:	22da           	movel %a2@+,%a1@+
     de2:	22da           	movel %a2@+,%a1@+
     de4:	22da           	movel %a2@+,%a1@+
     de6:	22da           	movel %a2@+,%a1@+
     de8:	22da           	movel %a2@+,%a1@+
     dea:	22da           	movel %a2@+,%a1@+
     dec:	22da           	movel %a2@+,%a1@+

00000dee <.lmr_len_00>:
     dee:	22da           	movel %a2@+,%a1@+
     df0:	7200           	moveq #0,%d1
     df2:	7000           	moveq #0,%d0
     df4:	1018           	moveb %a0@+,%d0
     df6:	1218           	moveb %a0@+,%d1
     df8:	d040           	addw %d0,%d0
     dfa:	d040           	addw %d0,%d0
     dfc:	2873 0000      	moveal %a3@(0,%d0:w),%a4
     e00:	4ed4           	jmp %a4@
     e02:	32da           	movew %a2@+,%a1@+
     e04:	32da           	movew %a2@+,%a1@+
     e06:	32da           	movew %a2@+,%a1@+
     e08:	32da           	movew %a2@+,%a1@+
     e0a:	32da           	movew %a2@+,%a1@+
     e0c:	32da           	movew %a2@+,%a1@+
     e0e:	32da           	movew %a2@+,%a1@+
     e10:	32da           	movew %a2@+,%a1@+
     e12:	32da           	movew %a2@+,%a1@+
     e14:	32da           	movew %a2@+,%a1@+
     e16:	32da           	movew %a2@+,%a1@+
     e18:	32da           	movew %a2@+,%a1@+
     e1a:	32da           	movew %a2@+,%a1@+
     e1c:	32da           	movew %a2@+,%a1@+
     e1e:	32da           	movew %a2@+,%a1@+
     e20:	32da           	movew %a2@+,%a1@+
     e22:	32da           	movew %a2@+,%a1@+
     e24:	32da           	movew %a2@+,%a1@+
     e26:	32da           	movew %a2@+,%a1@+
     e28:	32da           	movew %a2@+,%a1@+
     e2a:	32da           	movew %a2@+,%a1@+
     e2c:	32da           	movew %a2@+,%a1@+
     e2e:	32da           	movew %a2@+,%a1@+
     e30:	32da           	movew %a2@+,%a1@+
     e32:	32da           	movew %a2@+,%a1@+
     e34:	32da           	movew %a2@+,%a1@+
     e36:	32da           	movew %a2@+,%a1@+
     e38:	32da           	movew %a2@+,%a1@+
     e3a:	32da           	movew %a2@+,%a1@+
     e3c:	32da           	movew %a2@+,%a1@+
     e3e:	32da           	movew %a2@+,%a1@+
     e40:	32da           	movew %a2@+,%a1@+
     e42:	32da           	movew %a2@+,%a1@+
     e44:	32da           	movew %a2@+,%a1@+
     e46:	32da           	movew %a2@+,%a1@+
     e48:	32da           	movew %a2@+,%a1@+
     e4a:	32da           	movew %a2@+,%a1@+
     e4c:	32da           	movew %a2@+,%a1@+
     e4e:	32da           	movew %a2@+,%a1@+
     e50:	32da           	movew %a2@+,%a1@+
     e52:	32da           	movew %a2@+,%a1@+
     e54:	32da           	movew %a2@+,%a1@+
     e56:	32da           	movew %a2@+,%a1@+
     e58:	32da           	movew %a2@+,%a1@+
     e5a:	32da           	movew %a2@+,%a1@+
     e5c:	32da           	movew %a2@+,%a1@+
     e5e:	32da           	movew %a2@+,%a1@+
     e60:	32da           	movew %a2@+,%a1@+
     e62:	32da           	movew %a2@+,%a1@+
     e64:	32da           	movew %a2@+,%a1@+
     e66:	32da           	movew %a2@+,%a1@+
     e68:	32da           	movew %a2@+,%a1@+
     e6a:	32da           	movew %a2@+,%a1@+
     e6c:	32da           	movew %a2@+,%a1@+
     e6e:	32da           	movew %a2@+,%a1@+
     e70:	32da           	movew %a2@+,%a1@+
     e72:	32da           	movew %a2@+,%a1@+
     e74:	32da           	movew %a2@+,%a1@+
     e76:	32da           	movew %a2@+,%a1@+
     e78:	32da           	movew %a2@+,%a1@+
     e7a:	32da           	movew %a2@+,%a1@+
     e7c:	32da           	movew %a2@+,%a1@+
     e7e:	32da           	movew %a2@+,%a1@+
     e80:	32da           	movew %a2@+,%a1@+
     e82:	32da           	movew %a2@+,%a1@+
     e84:	32da           	movew %a2@+,%a1@+
     e86:	32da           	movew %a2@+,%a1@+
     e88:	32da           	movew %a2@+,%a1@+
     e8a:	32da           	movew %a2@+,%a1@+
     e8c:	32da           	movew %a2@+,%a1@+
     e8e:	32da           	movew %a2@+,%a1@+
     e90:	32da           	movew %a2@+,%a1@+
     e92:	32da           	movew %a2@+,%a1@+
     e94:	32da           	movew %a2@+,%a1@+
     e96:	32da           	movew %a2@+,%a1@+
     e98:	32da           	movew %a2@+,%a1@+
     e9a:	32da           	movew %a2@+,%a1@+
     e9c:	32da           	movew %a2@+,%a1@+
     e9e:	32da           	movew %a2@+,%a1@+
     ea0:	32da           	movew %a2@+,%a1@+
     ea2:	32da           	movew %a2@+,%a1@+
     ea4:	32da           	movew %a2@+,%a1@+
     ea6:	32da           	movew %a2@+,%a1@+
     ea8:	32da           	movew %a2@+,%a1@+
     eaa:	32da           	movew %a2@+,%a1@+
     eac:	32da           	movew %a2@+,%a1@+
     eae:	32da           	movew %a2@+,%a1@+
     eb0:	32da           	movew %a2@+,%a1@+
     eb2:	32da           	movew %a2@+,%a1@+
     eb4:	32da           	movew %a2@+,%a1@+
     eb6:	32da           	movew %a2@+,%a1@+
     eb8:	32da           	movew %a2@+,%a1@+
     eba:	32da           	movew %a2@+,%a1@+
     ebc:	32da           	movew %a2@+,%a1@+
     ebe:	32da           	movew %a2@+,%a1@+
     ec0:	32da           	movew %a2@+,%a1@+
     ec2:	32da           	movew %a2@+,%a1@+
     ec4:	32da           	movew %a2@+,%a1@+
     ec6:	32da           	movew %a2@+,%a1@+
     ec8:	32da           	movew %a2@+,%a1@+
     eca:	32da           	movew %a2@+,%a1@+
     ecc:	32da           	movew %a2@+,%a1@+
     ece:	32da           	movew %a2@+,%a1@+
     ed0:	32da           	movew %a2@+,%a1@+
     ed2:	32da           	movew %a2@+,%a1@+
     ed4:	32da           	movew %a2@+,%a1@+
     ed6:	32da           	movew %a2@+,%a1@+
     ed8:	32da           	movew %a2@+,%a1@+
     eda:	32da           	movew %a2@+,%a1@+
     edc:	32da           	movew %a2@+,%a1@+
     ede:	32da           	movew %a2@+,%a1@+
     ee0:	32da           	movew %a2@+,%a1@+
     ee2:	32da           	movew %a2@+,%a1@+
     ee4:	32da           	movew %a2@+,%a1@+
     ee6:	32da           	movew %a2@+,%a1@+
     ee8:	32da           	movew %a2@+,%a1@+
     eea:	32da           	movew %a2@+,%a1@+
     eec:	32da           	movew %a2@+,%a1@+
     eee:	32da           	movew %a2@+,%a1@+
     ef0:	32da           	movew %a2@+,%a1@+
     ef2:	32da           	movew %a2@+,%a1@+
     ef4:	32da           	movew %a2@+,%a1@+
     ef6:	32da           	movew %a2@+,%a1@+
     ef8:	32da           	movew %a2@+,%a1@+
     efa:	32da           	movew %a2@+,%a1@+
     efc:	32da           	movew %a2@+,%a1@+
     efe:	32da           	movew %a2@+,%a1@+
     f00:	32da           	movew %a2@+,%a1@+
     f02:	32da           	movew %a2@+,%a1@+
     f04:	32da           	movew %a2@+,%a1@+
     f06:	32da           	movew %a2@+,%a1@+
     f08:	32da           	movew %a2@+,%a1@+
     f0a:	32da           	movew %a2@+,%a1@+
     f0c:	32da           	movew %a2@+,%a1@+
     f0e:	32da           	movew %a2@+,%a1@+
     f10:	32da           	movew %a2@+,%a1@+
     f12:	32da           	movew %a2@+,%a1@+
     f14:	32da           	movew %a2@+,%a1@+
     f16:	32da           	movew %a2@+,%a1@+
     f18:	32da           	movew %a2@+,%a1@+
     f1a:	32da           	movew %a2@+,%a1@+
     f1c:	32da           	movew %a2@+,%a1@+
     f1e:	32da           	movew %a2@+,%a1@+
     f20:	32da           	movew %a2@+,%a1@+
     f22:	32da           	movew %a2@+,%a1@+
     f24:	32da           	movew %a2@+,%a1@+
     f26:	32da           	movew %a2@+,%a1@+
     f28:	32da           	movew %a2@+,%a1@+
     f2a:	32da           	movew %a2@+,%a1@+
     f2c:	32da           	movew %a2@+,%a1@+
     f2e:	32da           	movew %a2@+,%a1@+
     f30:	32da           	movew %a2@+,%a1@+
     f32:	32da           	movew %a2@+,%a1@+
     f34:	32da           	movew %a2@+,%a1@+
     f36:	32da           	movew %a2@+,%a1@+
     f38:	32da           	movew %a2@+,%a1@+
     f3a:	32da           	movew %a2@+,%a1@+
     f3c:	32da           	movew %a2@+,%a1@+
     f3e:	32da           	movew %a2@+,%a1@+
     f40:	32da           	movew %a2@+,%a1@+
     f42:	32da           	movew %a2@+,%a1@+
     f44:	32da           	movew %a2@+,%a1@+
     f46:	32da           	movew %a2@+,%a1@+
     f48:	32da           	movew %a2@+,%a1@+
     f4a:	32da           	movew %a2@+,%a1@+
     f4c:	32da           	movew %a2@+,%a1@+
     f4e:	32da           	movew %a2@+,%a1@+
     f50:	32da           	movew %a2@+,%a1@+
     f52:	32da           	movew %a2@+,%a1@+
     f54:	32da           	movew %a2@+,%a1@+
     f56:	32da           	movew %a2@+,%a1@+
     f58:	32da           	movew %a2@+,%a1@+
     f5a:	32da           	movew %a2@+,%a1@+
     f5c:	32da           	movew %a2@+,%a1@+
     f5e:	32da           	movew %a2@+,%a1@+
     f60:	32da           	movew %a2@+,%a1@+
     f62:	32da           	movew %a2@+,%a1@+
     f64:	32da           	movew %a2@+,%a1@+
     f66:	32da           	movew %a2@+,%a1@+
     f68:	32da           	movew %a2@+,%a1@+
     f6a:	32da           	movew %a2@+,%a1@+
     f6c:	32da           	movew %a2@+,%a1@+
     f6e:	32da           	movew %a2@+,%a1@+
     f70:	32da           	movew %a2@+,%a1@+
     f72:	32da           	movew %a2@+,%a1@+
     f74:	32da           	movew %a2@+,%a1@+
     f76:	32da           	movew %a2@+,%a1@+
     f78:	32da           	movew %a2@+,%a1@+
     f7a:	32da           	movew %a2@+,%a1@+
     f7c:	32da           	movew %a2@+,%a1@+
     f7e:	32da           	movew %a2@+,%a1@+
     f80:	32da           	movew %a2@+,%a1@+
     f82:	32da           	movew %a2@+,%a1@+
     f84:	32da           	movew %a2@+,%a1@+
     f86:	32da           	movew %a2@+,%a1@+
     f88:	32da           	movew %a2@+,%a1@+
     f8a:	32da           	movew %a2@+,%a1@+
     f8c:	32da           	movew %a2@+,%a1@+
     f8e:	32da           	movew %a2@+,%a1@+
     f90:	32da           	movew %a2@+,%a1@+
     f92:	32da           	movew %a2@+,%a1@+
     f94:	32da           	movew %a2@+,%a1@+
     f96:	32da           	movew %a2@+,%a1@+
     f98:	32da           	movew %a2@+,%a1@+
     f9a:	32da           	movew %a2@+,%a1@+
     f9c:	32da           	movew %a2@+,%a1@+
     f9e:	32da           	movew %a2@+,%a1@+
     fa0:	32da           	movew %a2@+,%a1@+
     fa2:	32da           	movew %a2@+,%a1@+
     fa4:	32da           	movew %a2@+,%a1@+
     fa6:	32da           	movew %a2@+,%a1@+
     fa8:	32da           	movew %a2@+,%a1@+
     faa:	32da           	movew %a2@+,%a1@+
     fac:	32da           	movew %a2@+,%a1@+
     fae:	32da           	movew %a2@+,%a1@+
     fb0:	32da           	movew %a2@+,%a1@+
     fb2:	32da           	movew %a2@+,%a1@+
     fb4:	32da           	movew %a2@+,%a1@+
     fb6:	32da           	movew %a2@+,%a1@+
     fb8:	32da           	movew %a2@+,%a1@+
     fba:	32da           	movew %a2@+,%a1@+
     fbc:	32da           	movew %a2@+,%a1@+
     fbe:	32da           	movew %a2@+,%a1@+
     fc0:	32da           	movew %a2@+,%a1@+
     fc2:	32da           	movew %a2@+,%a1@+
     fc4:	32da           	movew %a2@+,%a1@+
     fc6:	32da           	movew %a2@+,%a1@+
     fc8:	32da           	movew %a2@+,%a1@+
     fca:	32da           	movew %a2@+,%a1@+
     fcc:	32da           	movew %a2@+,%a1@+
     fce:	32da           	movew %a2@+,%a1@+
     fd0:	32da           	movew %a2@+,%a1@+
     fd2:	32da           	movew %a2@+,%a1@+
     fd4:	32da           	movew %a2@+,%a1@+
     fd6:	32da           	movew %a2@+,%a1@+
     fd8:	32da           	movew %a2@+,%a1@+
     fda:	32da           	movew %a2@+,%a1@+
     fdc:	32da           	movew %a2@+,%a1@+
     fde:	32da           	movew %a2@+,%a1@+
     fe0:	32da           	movew %a2@+,%a1@+
     fe2:	32da           	movew %a2@+,%a1@+
     fe4:	32da           	movew %a2@+,%a1@+
     fe6:	32da           	movew %a2@+,%a1@+
     fe8:	32da           	movew %a2@+,%a1@+
     fea:	32da           	movew %a2@+,%a1@+
     fec:	32da           	movew %a2@+,%a1@+
     fee:	32da           	movew %a2@+,%a1@+
     ff0:	32da           	movew %a2@+,%a1@+
     ff2:	32da           	movew %a2@+,%a1@+
     ff4:	32da           	movew %a2@+,%a1@+
     ff6:	32da           	movew %a2@+,%a1@+
     ff8:	32da           	movew %a2@+,%a1@+
     ffa:	32da           	movew %a2@+,%a1@+
     ffc:	32da           	movew %a2@+,%a1@+
     ffe:	32da           	movew %a2@+,%a1@+

00001000 <.lm_len_00>:
    1000:	32da           	movew %a2@+,%a1@+
    1002:	32da           	movew %a2@+,%a1@+
    1004:	7200           	moveq #0,%d1

00001006 <.next>:
    1006:	7000           	moveq #0,%d0
    1008:	1018           	moveb %a0@+,%d0
    100a:	1218           	moveb %a0@+,%d1
    100c:	d040           	addw %d0,%d0
    100e:	d040           	addw %d0,%d0
    1010:	2873 0000      	moveal %a3@(0,%d0:w),%a4
    1014:	4ed4           	jmp %a4@

00001016 <.litE_mat0>:
    1016:	22d8           	movel %a0@+,%a1@+

00001018 <.litC_mat0>:
    1018:	22d8           	movel %a0@+,%a1@+

0000101a <.litA_mat0>:
    101a:	22d8           	movel %a0@+,%a1@+

0000101c <.lit8_mat0>:
    101c:	22d8           	movel %a0@+,%a1@+

0000101e <.lit6_mat0>:
    101e:	22d8           	movel %a0@+,%a1@+

00001020 <.lit4_mat0>:
    1020:	22d8           	movel %a0@+,%a1@+

00001022 <.lit2_mat0>:
    1022:	22d8           	movel %a0@+,%a1@+
    1024:	d241           	addw %d1,%d1
    1026:	67de           	beqs 1006 <.next>

00001028 <.long_match_1>:
    1028:	3018           	movew %a0@+,%d0
    102a:	d040           	addw %d0,%d0
    102c:	6548           	bcss 1076 <.lm_rom>
    102e:	45f1 00fe      	lea %a1@(fffffffe,%d0:w),%a2
    1032:	4441           	negw %d1
    1034:	49fb 10ca      	lea %pc@(1000 <.lm_len_00>,%d1:w),%a4
    1038:	4ed4           	jmp %a4@

0000103a <.litF_mat0>:
    103a:	22d8           	movel %a0@+,%a1@+

0000103c <.litD_mat0>:
    103c:	22d8           	movel %a0@+,%a1@+

0000103e <.litB_mat0>:
    103e:	22d8           	movel %a0@+,%a1@+

00001040 <.lit9_mat0>:
    1040:	22d8           	movel %a0@+,%a1@+

00001042 <.lit7_mat0>:
    1042:	22d8           	movel %a0@+,%a1@+

00001044 <.lit5_mat0>:
    1044:	22d8           	movel %a0@+,%a1@+

00001046 <.lit3_mat0>:
    1046:	22d8           	movel %a0@+,%a1@+

00001048 <.lit1_mat0>:
    1048:	32d8           	movew %a0@+,%a1@+
    104a:	d241           	addw %d1,%d1
    104c:	67b8           	beqs 1006 <.next>

0000104e <.long_match_2>:
    104e:	3018           	movew %a0@+,%d0
    1050:	d040           	addw %d0,%d0
    1052:	6522           	bcss 1076 <.lm_rom>
    1054:	45f1 00fe      	lea %a1@(fffffffe,%d0:w),%a2
    1058:	4441           	negw %d1
    105a:	49fb 10a4      	lea %pc@(1000 <.lm_len_00>,%d1:w),%a4
    105e:	4ed4           	jmp %a4@

00001060 <.lit0_mat0>:
    1060:	d241           	addw %d1,%d1
    1062:	671e           	beqs 1082 <.done>

00001064 <.long_match_3>:
    1064:	3018           	movew %a0@+,%d0
    1066:	d040           	addw %d0,%d0
    1068:	650c           	bcss 1076 <.lm_rom>
    106a:	45f1 00fe      	lea %a1@(fffffffe,%d0:w),%a2
    106e:	4441           	negw %d1
    1070:	49fb 108e      	lea %pc@(1000 <.lm_len_00>,%d1:w),%a4
    1074:	4ed4           	jmp %a4@

00001076 <.lm_rom>:
    1076:	d241           	addw %d1,%d1
    1078:	45f0 00fe      	lea %a0@(fffffffe,%d0:w),%a2
    107c:	287b 1014      	moveal %pc@(1092 <.lmr_jump_table>,%d1:w),%a4
    1080:	4ed4           	jmp %a4@

00001082 <.done>:
    1082:	3018           	movew %a0@+,%d0
    1084:	6a02           	bpls 1088 <.no_byte>
    1086:	12c0           	moveb %d0,%a1@+

00001088 <.no_byte>:
    1088:	2009           	movel %a1,%d0
    108a:	909f           	subl %sp@+,%d0
    108c:	4cdf 1c00      	moveml %sp@+,%a2-%a4
    1090:	4e75           	rts

00001092 <.lmr_jump_table>:
    1092:	0000 0dee      	orib #-18,%d0
    1096:	0000 0cda      	orib #-38,%d0
    109a:	0000 0dec      	orib #-20,%d0
    109e:	0000 0cd8      	orib #-40,%d0
    10a2:	0000 0dea      	orib #-22,%d0
    10a6:	0000 0cd6      	orib #-42,%d0
    10aa:	0000 0de8      	orib #-24,%d0
    10ae:	0000 0cd4      	orib #-44,%d0
    10b2:	0000 0de6      	orib #-26,%d0
    10b6:	0000 0cd2      	orib #-46,%d0
    10ba:	0000 0de4      	orib #-28,%d0
    10be:	0000 0cd0      	orib #-48,%d0
    10c2:	0000 0de2      	orib #-30,%d0
    10c6:	0000 0cce      	orib #-50,%d0
    10ca:	0000 0de0      	orib #-32,%d0
    10ce:	0000 0ccc      	orib #-52,%d0
    10d2:	0000 0dde      	orib #-34,%d0
    10d6:	0000 0cca      	orib #-54,%d0
    10da:	0000 0ddc      	orib #-36,%d0
    10de:	0000 0cc8      	orib #-56,%d0
    10e2:	0000 0dda      	orib #-38,%d0
    10e6:	0000 0cc6      	orib #-58,%d0
    10ea:	0000 0dd8      	orib #-40,%d0
    10ee:	0000 0cc4      	orib #-60,%d0
    10f2:	0000 0dd6      	orib #-42,%d0
    10f6:	0000 0cc2      	orib #-62,%d0
    10fa:	0000 0dd4      	orib #-44,%d0
    10fe:	0000 0cc0      	orib #-64,%d0
    1102:	0000 0dd2      	orib #-46,%d0
    1106:	0000 0cbe      	orib #-66,%d0
    110a:	0000 0dd0      	orib #-48,%d0
    110e:	0000 0cbc      	orib #-68,%d0
    1112:	0000 0dce      	orib #-50,%d0
    1116:	0000 0cba      	orib #-70,%d0
    111a:	0000 0dcc      	orib #-52,%d0
    111e:	0000 0cb8      	orib #-72,%d0
    1122:	0000 0dca      	orib #-54,%d0
    1126:	0000 0cb6      	orib #-74,%d0
    112a:	0000 0dc8      	orib #-56,%d0
    112e:	0000 0cb4      	orib #-76,%d0
    1132:	0000 0dc6      	orib #-58,%d0
    1136:	0000 0cb2      	orib #-78,%d0
    113a:	0000 0dc4      	orib #-60,%d0
    113e:	0000 0cb0      	orib #-80,%d0
    1142:	0000 0dc2      	orib #-62,%d0
    1146:	0000 0cae      	orib #-82,%d0
    114a:	0000 0dc0      	orib #-64,%d0
    114e:	0000 0cac      	orib #-84,%d0
    1152:	0000 0dbe      	orib #-66,%d0
    1156:	0000 0caa      	orib #-86,%d0
    115a:	0000 0dbc      	orib #-68,%d0
    115e:	0000 0ca8      	orib #-88,%d0
    1162:	0000 0dba      	orib #-70,%d0
    1166:	0000 0ca6      	orib #-90,%d0
    116a:	0000 0db8      	orib #-72,%d0
    116e:	0000 0ca4      	orib #-92,%d0
    1172:	0000 0db6      	orib #-74,%d0
    1176:	0000 0ca2      	orib #-94,%d0
    117a:	0000 0db4      	orib #-76,%d0
    117e:	0000 0ca0      	orib #-96,%d0
    1182:	0000 0db2      	orib #-78,%d0
    1186:	0000 0c9e      	orib #-98,%d0
    118a:	0000 0db0      	orib #-80,%d0
    118e:	0000 0c9c      	orib #-100,%d0
    1192:	0000 0dae      	orib #-82,%d0
    1196:	0000 0c9a      	orib #-102,%d0
    119a:	0000 0dac      	orib #-84,%d0
    119e:	0000 0c98      	orib #-104,%d0
    11a2:	0000 0daa      	orib #-86,%d0
    11a6:	0000 0c96      	orib #-106,%d0
    11aa:	0000 0da8      	orib #-88,%d0
    11ae:	0000 0c94      	orib #-108,%d0
    11b2:	0000 0da6      	orib #-90,%d0
    11b6:	0000 0c92      	orib #-110,%d0
    11ba:	0000 0da4      	orib #-92,%d0
    11be:	0000 0c90      	orib #-112,%d0
    11c2:	0000 0da2      	orib #-94,%d0
    11c6:	0000 0c8e      	orib #-114,%d0
    11ca:	0000 0da0      	orib #-96,%d0
    11ce:	0000 0c8c      	orib #-116,%d0
    11d2:	0000 0d9e      	orib #-98,%d0
    11d6:	0000 0c8a      	orib #-118,%d0
    11da:	0000 0d9c      	orib #-100,%d0
    11de:	0000 0c88      	orib #-120,%d0
    11e2:	0000 0d9a      	orib #-102,%d0
    11e6:	0000 0c86      	orib #-122,%d0
    11ea:	0000 0d98      	orib #-104,%d0
    11ee:	0000 0c84      	orib #-124,%d0
    11f2:	0000 0d96      	orib #-106,%d0
    11f6:	0000 0c82      	orib #-126,%d0
    11fa:	0000 0d94      	orib #-108,%d0
    11fe:	0000 0c80      	orib #-128,%d0
    1202:	0000 0d92      	orib #-110,%d0
    1206:	0000 0c7e      	orib #126,%d0
    120a:	0000 0d90      	orib #-112,%d0
    120e:	0000 0c7c      	orib #124,%d0
    1212:	0000 0d8e      	orib #-114,%d0
    1216:	0000 0c7a      	orib #122,%d0
    121a:	0000 0d8c      	orib #-116,%d0
    121e:	0000 0c78      	orib #120,%d0
    1222:	0000 0d8a      	orib #-118,%d0
    1226:	0000 0c76      	orib #118,%d0
    122a:	0000 0d88      	orib #-120,%d0
    122e:	0000 0c74      	orib #116,%d0
    1232:	0000 0d86      	orib #-122,%d0
    1236:	0000 0c72      	orib #114,%d0
    123a:	0000 0d84      	orib #-124,%d0
    123e:	0000 0c70      	orib #112,%d0
    1242:	0000 0d82      	orib #-126,%d0
    1246:	0000 0c6e      	orib #110,%d0
    124a:	0000 0d80      	orib #-128,%d0
    124e:	0000 0c6c      	orib #108,%d0
    1252:	0000 0d7e      	orib #126,%d0
    1256:	0000 0c6a      	orib #106,%d0
    125a:	0000 0d7c      	orib #124,%d0
    125e:	0000 0c68      	orib #104,%d0
    1262:	0000 0d7a      	orib #122,%d0
    1266:	0000 0c66      	orib #102,%d0
    126a:	0000 0d78      	orib #120,%d0
    126e:	0000 0c64      	orib #100,%d0
    1272:	0000 0d76      	orib #118,%d0
    1276:	0000 0c62      	orib #98,%d0
    127a:	0000 0d74      	orib #116,%d0
    127e:	0000 0c60      	orib #96,%d0
    1282:	0000 0d72      	orib #114,%d0
    1286:	0000 0c5e      	orib #94,%d0
    128a:	0000 0d70      	orib #112,%d0
    128e:	0000 0c5c      	orib #92,%d0
    1292:	0000 0d6e      	orib #110,%d0
    1296:	0000 0c5a      	orib #90,%d0
    129a:	0000 0d6c      	orib #108,%d0
    129e:	0000 0c58      	orib #88,%d0
    12a2:	0000 0d6a      	orib #106,%d0
    12a6:	0000 0c56      	orib #86,%d0
    12aa:	0000 0d68      	orib #104,%d0
    12ae:	0000 0c54      	orib #84,%d0
    12b2:	0000 0d66      	orib #102,%d0
    12b6:	0000 0c52      	orib #82,%d0
    12ba:	0000 0d64      	orib #100,%d0
    12be:	0000 0c50      	orib #80,%d0
    12c2:	0000 0d62      	orib #98,%d0
    12c6:	0000 0c4e      	orib #78,%d0
    12ca:	0000 0d60      	orib #96,%d0
    12ce:	0000 0c4c      	orib #76,%d0
    12d2:	0000 0d5e      	orib #94,%d0
    12d6:	0000 0c4a      	orib #74,%d0
    12da:	0000 0d5c      	orib #92,%d0
    12de:	0000 0c48      	orib #72,%d0
    12e2:	0000 0d5a      	orib #90,%d0
    12e6:	0000 0c46      	orib #70,%d0
    12ea:	0000 0d58      	orib #88,%d0
    12ee:	0000 0c44      	orib #68,%d0
    12f2:	0000 0d56      	orib #86,%d0
    12f6:	0000 0c42      	orib #66,%d0
    12fa:	0000 0d54      	orib #84,%d0
    12fe:	0000 0c40      	orib #64,%d0
    1302:	0000 0d52      	orib #82,%d0
    1306:	0000 0c3e      	orib #62,%d0
    130a:	0000 0d50      	orib #80,%d0
    130e:	0000 0c3c      	orib #60,%d0
    1312:	0000 0d4e      	orib #78,%d0
    1316:	0000 0c3a      	orib #58,%d0
    131a:	0000 0d4c      	orib #76,%d0
    131e:	0000 0c38      	orib #56,%d0
    1322:	0000 0d4a      	orib #74,%d0
    1326:	0000 0c36      	orib #54,%d0
    132a:	0000 0d48      	orib #72,%d0
    132e:	0000 0c34      	orib #52,%d0
    1332:	0000 0d46      	orib #70,%d0
    1336:	0000 0c32      	orib #50,%d0
    133a:	0000 0d44      	orib #68,%d0
    133e:	0000 0c30      	orib #48,%d0
    1342:	0000 0d42      	orib #66,%d0
    1346:	0000 0c2e      	orib #46,%d0
    134a:	0000 0d40      	orib #64,%d0
    134e:	0000 0c2c      	orib #44,%d0
    1352:	0000 0d3e      	orib #62,%d0
    1356:	0000 0c2a      	orib #42,%d0
    135a:	0000 0d3c      	orib #60,%d0
    135e:	0000 0c28      	orib #40,%d0
    1362:	0000 0d3a      	orib #58,%d0
    1366:	0000 0c26      	orib #38,%d0
    136a:	0000 0d38      	orib #56,%d0
    136e:	0000 0c24      	orib #36,%d0
    1372:	0000 0d36      	orib #54,%d0
    1376:	0000 0c22      	orib #34,%d0
    137a:	0000 0d34      	orib #52,%d0
    137e:	0000 0c20      	orib #32,%d0
    1382:	0000 0d32      	orib #50,%d0
    1386:	0000 0c1e      	orib #30,%d0
    138a:	0000 0d30      	orib #48,%d0
    138e:	0000 0c1c      	orib #28,%d0
    1392:	0000 0d2e      	orib #46,%d0
    1396:	0000 0c1a      	orib #26,%d0
    139a:	0000 0d2c      	orib #44,%d0
    139e:	0000 0c18      	orib #24,%d0
    13a2:	0000 0d2a      	orib #42,%d0
    13a6:	0000 0c16      	orib #22,%d0
    13aa:	0000 0d28      	orib #40,%d0
    13ae:	0000 0c14      	orib #20,%d0
    13b2:	0000 0d26      	orib #38,%d0
    13b6:	0000 0c12      	orib #18,%d0
    13ba:	0000 0d24      	orib #36,%d0
    13be:	0000 0c10      	orib #16,%d0
    13c2:	0000 0d22      	orib #34,%d0
    13c6:	0000 0c0e      	orib #14,%d0
    13ca:	0000 0d20      	orib #32,%d0
    13ce:	0000 0c0c      	orib #12,%d0
    13d2:	0000 0d1e      	orib #30,%d0
    13d6:	0000 0c0a      	orib #10,%d0
    13da:	0000 0d1c      	orib #28,%d0
    13de:	0000 0c08      	orib #8,%d0
    13e2:	0000 0d1a      	orib #26,%d0
    13e6:	0000 0c06      	orib #6,%d0
    13ea:	0000 0d18      	orib #24,%d0
    13ee:	0000 0c04      	orib #4,%d0
    13f2:	0000 0d16      	orib #22,%d0
    13f6:	0000 0c02      	orib #2,%d0
    13fa:	0000 0d14      	orib #20,%d0
    13fe:	0000 0c00      	orib #0,%d0
    1402:	0000 0d12      	orib #18,%d0
    1406:	0000 0bfe      	orib #-2,%d0
    140a:	0000 0d10      	orib #16,%d0
    140e:	0000 0bfc      	orib #-4,%d0
    1412:	0000 0d0e      	orib #14,%d0
    1416:	0000 0bfa      	orib #-6,%d0
    141a:	0000 0d0c      	orib #12,%d0
    141e:	0000 0bf8      	orib #-8,%d0
    1422:	0000 0d0a      	orib #10,%d0
    1426:	0000 0bf6      	orib #-10,%d0
    142a:	0000 0d08      	orib #8,%d0
    142e:	0000 0bf4      	orib #-12,%d0
    1432:	0000 0d06      	orib #6,%d0
    1436:	0000 0bf2      	orib #-14,%d0
    143a:	0000 0d04      	orib #4,%d0
    143e:	0000 0bf0      	orib #-16,%d0
    1442:	0000 0d02      	orib #2,%d0
    1446:	0000 0bee      	orib #-18,%d0
    144a:	0000 0d00      	orib #0,%d0
    144e:	0000 0bec      	orib #-20,%d0
    1452:	0000 0cfe      	orib #-2,%d0
    1456:	0000 0bea      	orib #-22,%d0
    145a:	0000 0cfc      	orib #-4,%d0
    145e:	0000 0be8      	orib #-24,%d0
    1462:	0000 0cfa      	orib #-6,%d0
    1466:	0000 0be6      	orib #-26,%d0
    146a:	0000 0cf8      	orib #-8,%d0
    146e:	0000 0be4      	orib #-28,%d0
    1472:	0000 0cf6      	orib #-10,%d0
    1476:	0000 0be2      	orib #-30,%d0
    147a:	0000 0cf4      	orib #-12,%d0
    147e:	0000 0be0      	orib #-32,%d0
    1482:	0000 0cf2      	orib #-14,%d0
    1486:	0000 0bde      	orib #-34,%d0
    148a:	0000 0cf0      	orib #-16,%d0
    148e:	0000 0bdc      	orib #-36,%d0

00001492 <.litE_mat1>:
    1492:	22d8           	movel %a0@+,%a1@+

00001494 <.litC_mat1>:
    1494:	22d8           	movel %a0@+,%a1@+

00001496 <.litA_mat1>:
    1496:	22d8           	movel %a0@+,%a1@+

00001498 <.lit8_mat1>:
    1498:	22d8           	movel %a0@+,%a1@+

0000149a <.lit6_mat1>:
    149a:	22d8           	movel %a0@+,%a1@+

0000149c <.lit4_mat1>:
    149c:	22d8           	movel %a0@+,%a1@+

0000149e <.lit2_mat1>:
    149e:	22d8           	movel %a0@+,%a1@+

000014a0 <.lit0_mat1>:
    14a0:	d241           	addw %d1,%d1
    14a2:	4441           	negw %d1
    14a4:	45f1 10fe      	lea %a1@(fffffffe,%d1:w),%a2
    14a8:	32da           	movew %a2@+,%a1@+
    14aa:	32da           	movew %a2@+,%a1@+
    14ac:	7200           	moveq #0,%d1
    14ae:	7000           	moveq #0,%d0
    14b0:	1018           	moveb %a0@+,%d0
    14b2:	1218           	moveb %a0@+,%d1
    14b4:	d040           	addw %d0,%d0
    14b6:	d040           	addw %d0,%d0
    14b8:	2873 0000      	moveal %a3@(0,%d0:w),%a4
    14bc:	4ed4           	jmp %a4@

000014be <.litF_mat1>:
    14be:	22d8           	movel %a0@+,%a1@+

000014c0 <.litD_mat1>:
    14c0:	22d8           	movel %a0@+,%a1@+

000014c2 <.litB_mat1>:
    14c2:	22d8           	movel %a0@+,%a1@+

000014c4 <.lit9_mat1>:
    14c4:	22d8           	movel %a0@+,%a1@+

000014c6 <.lit7_mat1>:
    14c6:	22d8           	movel %a0@+,%a1@+

000014c8 <.lit5_mat1>:
    14c8:	22d8           	movel %a0@+,%a1@+

000014ca <.lit3_mat1>:
    14ca:	22d8           	movel %a0@+,%a1@+

000014cc <.lit1_mat1>:
    14cc:	32d8           	movew %a0@+,%a1@+
    14ce:	d241           	addw %d1,%d1
    14d0:	4441           	negw %d1
    14d2:	45f1 10fe      	lea %a1@(fffffffe,%d1:w),%a2
    14d6:	32da           	movew %a2@+,%a1@+
    14d8:	32da           	movew %a2@+,%a1@+
    14da:	7200           	moveq #0,%d1
    14dc:	7000           	moveq #0,%d0
    14de:	1018           	moveb %a0@+,%d0
    14e0:	1218           	moveb %a0@+,%d1
    14e2:	d040           	addw %d0,%d0
    14e4:	d040           	addw %d0,%d0
    14e6:	2873 0000      	moveal %a3@(0,%d0:w),%a4
    14ea:	4ed4           	jmp %a4@

000014ec <.litE_mat2>:
    14ec:	22d8           	movel %a0@+,%a1@+

000014ee <.litC_mat2>:
    14ee:	22d8           	movel %a0@+,%a1@+

000014f0 <.litA_mat2>:
    14f0:	22d8           	movel %a0@+,%a1@+

000014f2 <.lit8_mat2>:
    14f2:	22d8           	movel %a0@+,%a1@+

000014f4 <.lit6_mat2>:
    14f4:	22d8           	movel %a0@+,%a1@+

000014f6 <.lit4_mat2>:
    14f6:	22d8           	movel %a0@+,%a1@+

000014f8 <.lit2_mat2>:
    14f8:	22d8           	movel %a0@+,%a1@+

000014fa <.lit0_mat2>:
    14fa:	d241           	addw %d1,%d1
    14fc:	4441           	negw %d1
    14fe:	45f1 10fe      	lea %a1@(fffffffe,%d1:w),%a2
    1502:	32da           	movew %a2@+,%a1@+
    1504:	32da           	movew %a2@+,%a1@+
    1506:	32da           	movew %a2@+,%a1@+
    1508:	7200           	moveq #0,%d1
    150a:	7000           	moveq #0,%d0
    150c:	1018           	moveb %a0@+,%d0
    150e:	1218           	moveb %a0@+,%d1
    1510:	d040           	addw %d0,%d0
    1512:	d040           	addw %d0,%d0
    1514:	2873 0000      	moveal %a3@(0,%d0:w),%a4
    1518:	4ed4           	jmp %a4@

0000151a <.litF_mat2>:
    151a:	22d8           	movel %a0@+,%a1@+

0000151c <.litD_mat2>:
    151c:	22d8           	movel %a0@+,%a1@+

0000151e <.litB_mat2>:
    151e:	22d8           	movel %a0@+,%a1@+

00001520 <.lit9_mat2>:
    1520:	22d8           	movel %a0@+,%a1@+

00001522 <.lit7_mat2>:
    1522:	22d8           	movel %a0@+,%a1@+

00001524 <.lit5_mat2>:
    1524:	22d8           	movel %a0@+,%a1@+

00001526 <.lit3_mat2>:
    1526:	22d8           	movel %a0@+,%a1@+

00001528 <.lit1_mat2>:
    1528:	32d8           	movew %a0@+,%a1@+
    152a:	d241           	addw %d1,%d1
    152c:	4441           	negw %d1
    152e:	45f1 10fe      	lea %a1@(fffffffe,%d1:w),%a2
    1532:	32da           	movew %a2@+,%a1@+
    1534:	32da           	movew %a2@+,%a1@+
    1536:	32da           	movew %a2@+,%a1@+
    1538:	7200           	moveq #0,%d1
    153a:	7000           	moveq #0,%d0
    153c:	1018           	moveb %a0@+,%d0
    153e:	1218           	moveb %a0@+,%d1
    1540:	d040           	addw %d0,%d0
    1542:	d040           	addw %d0,%d0
    1544:	2873 0000      	moveal %a3@(0,%d0:w),%a4
    1548:	4ed4           	jmp %a4@

0000154a <.litE_mat3>:
    154a:	22d8           	movel %a0@+,%a1@+

0000154c <.litC_mat3>:
    154c:	22d8           	movel %a0@+,%a1@+

0000154e <.litA_mat3>:
    154e:	22d8           	movel %a0@+,%a1@+

00001550 <.lit8_mat3>:
    1550:	22d8           	movel %a0@+,%a1@+

00001552 <.lit6_mat3>:
    1552:	22d8           	movel %a0@+,%a1@+

00001554 <.lit4_mat3>:
    1554:	22d8           	movel %a0@+,%a1@+

00001556 <.lit2_mat3>:
    1556:	22d8           	movel %a0@+,%a1@+

00001558 <.lit0_mat3>:
    1558:	d241           	addw %d1,%d1
    155a:	4441           	negw %d1
    155c:	45f1 10fe      	lea %a1@(fffffffe,%d1:w),%a2
    1560:	32da           	movew %a2@+,%a1@+
    1562:	32da           	movew %a2@+,%a1@+
    1564:	32da           	movew %a2@+,%a1@+
    1566:	32da           	movew %a2@+,%a1@+
    1568:	7200           	moveq #0,%d1
    156a:	7000           	moveq #0,%d0
    156c:	1018           	moveb %a0@+,%d0
    156e:	1218           	moveb %a0@+,%d1
    1570:	d040           	addw %d0,%d0
    1572:	d040           	addw %d0,%d0
    1574:	2873 0000      	moveal %a3@(0,%d0:w),%a4
    1578:	4ed4           	jmp %a4@

0000157a <.litF_mat3>:
    157a:	22d8           	movel %a0@+,%a1@+

0000157c <.litD_mat3>:
    157c:	22d8           	movel %a0@+,%a1@+

0000157e <.litB_mat3>:
    157e:	22d8           	movel %a0@+,%a1@+

00001580 <.lit9_mat3>:
    1580:	22d8           	movel %a0@+,%a1@+

00001582 <.lit7_mat3>:
    1582:	22d8           	movel %a0@+,%a1@+

00001584 <.lit5_mat3>:
    1584:	22d8           	movel %a0@+,%a1@+

00001586 <.lit3_mat3>:
    1586:	22d8           	movel %a0@+,%a1@+

00001588 <.lit1_mat3>:
    1588:	32d8           	movew %a0@+,%a1@+
    158a:	d241           	addw %d1,%d1
    158c:	4441           	negw %d1
    158e:	45f1 10fe      	lea %a1@(fffffffe,%d1:w),%a2
    1592:	32da           	movew %a2@+,%a1@+
    1594:	32da           	movew %a2@+,%a1@+
    1596:	32da           	movew %a2@+,%a1@+
    1598:	32da           	movew %a2@+,%a1@+
    159a:	7200           	moveq #0,%d1
    159c:	7000           	moveq #0,%d0
    159e:	1018           	moveb %a0@+,%d0
    15a0:	1218           	moveb %a0@+,%d1
    15a2:	d040           	addw %d0,%d0
    15a4:	d040           	addw %d0,%d0
    15a6:	2873 0000      	moveal %a3@(0,%d0:w),%a4
    15aa:	4ed4           	jmp %a4@

000015ac <.litE_mat4>:
    15ac:	22d8           	movel %a0@+,%a1@+

000015ae <.litC_mat4>:
    15ae:	22d8           	movel %a0@+,%a1@+

000015b0 <.litA_mat4>:
    15b0:	22d8           	movel %a0@+,%a1@+

000015b2 <.lit8_mat4>:
    15b2:	22d8           	movel %a0@+,%a1@+

000015b4 <.lit6_mat4>:
    15b4:	22d8           	movel %a0@+,%a1@+

000015b6 <.lit4_mat4>:
    15b6:	22d8           	movel %a0@+,%a1@+

000015b8 <.lit2_mat4>:
    15b8:	22d8           	movel %a0@+,%a1@+

000015ba <.lit0_mat4>:
    15ba:	d241           	addw %d1,%d1
    15bc:	4441           	negw %d1
    15be:	45f1 10fe      	lea %a1@(fffffffe,%d1:w),%a2
    15c2:	32da           	movew %a2@+,%a1@+
    15c4:	32da           	movew %a2@+,%a1@+
    15c6:	32da           	movew %a2@+,%a1@+
    15c8:	32da           	movew %a2@+,%a1@+
    15ca:	32da           	movew %a2@+,%a1@+
    15cc:	7200           	moveq #0,%d1
    15ce:	7000           	moveq #0,%d0
    15d0:	1018           	moveb %a0@+,%d0
    15d2:	1218           	moveb %a0@+,%d1
    15d4:	d040           	addw %d0,%d0
    15d6:	d040           	addw %d0,%d0
    15d8:	2873 0000      	moveal %a3@(0,%d0:w),%a4
    15dc:	4ed4           	jmp %a4@

000015de <.litF_mat4>:
    15de:	22d8           	movel %a0@+,%a1@+

000015e0 <.litD_mat4>:
    15e0:	22d8           	movel %a0@+,%a1@+

000015e2 <.litB_mat4>:
    15e2:	22d8           	movel %a0@+,%a1@+

000015e4 <.lit9_mat4>:
    15e4:	22d8           	movel %a0@+,%a1@+

000015e6 <.lit7_mat4>:
    15e6:	22d8           	movel %a0@+,%a1@+

000015e8 <.lit5_mat4>:
    15e8:	22d8           	movel %a0@+,%a1@+

000015ea <.lit3_mat4>:
    15ea:	22d8           	movel %a0@+,%a1@+

000015ec <.lit1_mat4>:
    15ec:	32d8           	movew %a0@+,%a1@+
    15ee:	d241           	addw %d1,%d1
    15f0:	4441           	negw %d1
    15f2:	45f1 10fe      	lea %a1@(fffffffe,%d1:w),%a2
    15f6:	32da           	movew %a2@+,%a1@+
    15f8:	32da           	movew %a2@+,%a1@+
    15fa:	32da           	movew %a2@+,%a1@+
    15fc:	32da           	movew %a2@+,%a1@+
    15fe:	32da           	movew %a2@+,%a1@+
    1600:	7200           	moveq #0,%d1
    1602:	7000           	moveq #0,%d0
    1604:	1018           	moveb %a0@+,%d0
    1606:	1218           	moveb %a0@+,%d1
    1608:	d040           	addw %d0,%d0
    160a:	d040           	addw %d0,%d0
    160c:	2873 0000      	moveal %a3@(0,%d0:w),%a4
    1610:	4ed4           	jmp %a4@

00001612 <.litE_mat5>:
    1612:	22d8           	movel %a0@+,%a1@+

00001614 <.litC_mat5>:
    1614:	22d8           	movel %a0@+,%a1@+

00001616 <.litA_mat5>:
    1616:	22d8           	movel %a0@+,%a1@+

00001618 <.lit8_mat5>:
    1618:	22d8           	movel %a0@+,%a1@+

0000161a <.lit6_mat5>:
    161a:	22d8           	movel %a0@+,%a1@+

0000161c <.lit4_mat5>:
    161c:	22d8           	movel %a0@+,%a1@+

0000161e <.lit2_mat5>:
    161e:	22d8           	movel %a0@+,%a1@+

00001620 <.lit0_mat5>:
    1620:	d241           	addw %d1,%d1
    1622:	4441           	negw %d1
    1624:	45f1 10fe      	lea %a1@(fffffffe,%d1:w),%a2
    1628:	32da           	movew %a2@+,%a1@+
    162a:	32da           	movew %a2@+,%a1@+
    162c:	32da           	movew %a2@+,%a1@+
    162e:	32da           	movew %a2@+,%a1@+
    1630:	32da           	movew %a2@+,%a1@+
    1632:	32da           	movew %a2@+,%a1@+
    1634:	7200           	moveq #0,%d1
    1636:	7000           	moveq #0,%d0
    1638:	1018           	moveb %a0@+,%d0
    163a:	1218           	moveb %a0@+,%d1
    163c:	d040           	addw %d0,%d0
    163e:	d040           	addw %d0,%d0
    1640:	2873 0000      	moveal %a3@(0,%d0:w),%a4
    1644:	4ed4           	jmp %a4@

00001646 <.litF_mat5>:
    1646:	22d8           	movel %a0@+,%a1@+

00001648 <.litD_mat5>:
    1648:	22d8           	movel %a0@+,%a1@+

0000164a <.litB_mat5>:
    164a:	22d8           	movel %a0@+,%a1@+

0000164c <.lit9_mat5>:
    164c:	22d8           	movel %a0@+,%a1@+

0000164e <.lit7_mat5>:
    164e:	22d8           	movel %a0@+,%a1@+

00001650 <.lit5_mat5>:
    1650:	22d8           	movel %a0@+,%a1@+

00001652 <.lit3_mat5>:
    1652:	22d8           	movel %a0@+,%a1@+

00001654 <.lit1_mat5>:
    1654:	32d8           	movew %a0@+,%a1@+
    1656:	d241           	addw %d1,%d1
    1658:	4441           	negw %d1
    165a:	45f1 10fe      	lea %a1@(fffffffe,%d1:w),%a2
    165e:	32da           	movew %a2@+,%a1@+
    1660:	32da           	movew %a2@+,%a1@+
    1662:	32da           	movew %a2@+,%a1@+
    1664:	32da           	movew %a2@+,%a1@+
    1666:	32da           	movew %a2@+,%a1@+
    1668:	32da           	movew %a2@+,%a1@+
    166a:	7200           	moveq #0,%d1
    166c:	7000           	moveq #0,%d0
    166e:	1018           	moveb %a0@+,%d0
    1670:	1218           	moveb %a0@+,%d1
    1672:	d040           	addw %d0,%d0
    1674:	d040           	addw %d0,%d0
    1676:	2873 0000      	moveal %a3@(0,%d0:w),%a4
    167a:	4ed4           	jmp %a4@

0000167c <.litE_mat6>:
    167c:	22d8           	movel %a0@+,%a1@+

0000167e <.litC_mat6>:
    167e:	22d8           	movel %a0@+,%a1@+

00001680 <.litA_mat6>:
    1680:	22d8           	movel %a0@+,%a1@+

00001682 <.lit8_mat6>:
    1682:	22d8           	movel %a0@+,%a1@+

00001684 <.lit6_mat6>:
    1684:	22d8           	movel %a0@+,%a1@+

00001686 <.lit4_mat6>:
    1686:	22d8           	movel %a0@+,%a1@+

00001688 <.lit2_mat6>:
    1688:	22d8           	movel %a0@+,%a1@+

0000168a <.lit0_mat6>:
    168a:	d241           	addw %d1,%d1
    168c:	4441           	negw %d1
    168e:	45f1 10fe      	lea %a1@(fffffffe,%d1:w),%a2
    1692:	32da           	movew %a2@+,%a1@+
    1694:	32da           	movew %a2@+,%a1@+
    1696:	32da           	movew %a2@+,%a1@+
    1698:	32da           	movew %a2@+,%a1@+
    169a:	32da           	movew %a2@+,%a1@+
    169c:	32da           	movew %a2@+,%a1@+
    169e:	32da           	movew %a2@+,%a1@+
    16a0:	7200           	moveq #0,%d1
    16a2:	7000           	moveq #0,%d0
    16a4:	1018           	moveb %a0@+,%d0
    16a6:	1218           	moveb %a0@+,%d1
    16a8:	d040           	addw %d0,%d0
    16aa:	d040           	addw %d0,%d0
    16ac:	2873 0000      	moveal %a3@(0,%d0:w),%a4
    16b0:	4ed4           	jmp %a4@

000016b2 <.litF_mat6>:
    16b2:	22d8           	movel %a0@+,%a1@+

000016b4 <.litD_mat6>:
    16b4:	22d8           	movel %a0@+,%a1@+

000016b6 <.litB_mat6>:
    16b6:	22d8           	movel %a0@+,%a1@+

000016b8 <.lit9_mat6>:
    16b8:	22d8           	movel %a0@+,%a1@+

000016ba <.lit7_mat6>:
    16ba:	22d8           	movel %a0@+,%a1@+

000016bc <.lit5_mat6>:
    16bc:	22d8           	movel %a0@+,%a1@+

000016be <.lit3_mat6>:
    16be:	22d8           	movel %a0@+,%a1@+

000016c0 <.lit1_mat6>:
    16c0:	32d8           	movew %a0@+,%a1@+
    16c2:	d241           	addw %d1,%d1
    16c4:	4441           	negw %d1
    16c6:	45f1 10fe      	lea %a1@(fffffffe,%d1:w),%a2
    16ca:	32da           	movew %a2@+,%a1@+
    16cc:	32da           	movew %a2@+,%a1@+
    16ce:	32da           	movew %a2@+,%a1@+
    16d0:	32da           	movew %a2@+,%a1@+
    16d2:	32da           	movew %a2@+,%a1@+
    16d4:	32da           	movew %a2@+,%a1@+
    16d6:	32da           	movew %a2@+,%a1@+
    16d8:	7200           	moveq #0,%d1
    16da:	7000           	moveq #0,%d0
    16dc:	1018           	moveb %a0@+,%d0
    16de:	1218           	moveb %a0@+,%d1
    16e0:	d040           	addw %d0,%d0
    16e2:	d040           	addw %d0,%d0
    16e4:	2873 0000      	moveal %a3@(0,%d0:w),%a4
    16e8:	4ed4           	jmp %a4@

000016ea <.litE_mat7>:
    16ea:	22d8           	movel %a0@+,%a1@+

000016ec <.litC_mat7>:
    16ec:	22d8           	movel %a0@+,%a1@+

000016ee <.litA_mat7>:
    16ee:	22d8           	movel %a0@+,%a1@+

000016f0 <.lit8_mat7>:
    16f0:	22d8           	movel %a0@+,%a1@+

000016f2 <.lit6_mat7>:
    16f2:	22d8           	movel %a0@+,%a1@+

000016f4 <.lit4_mat7>:
    16f4:	22d8           	movel %a0@+,%a1@+

000016f6 <.lit2_mat7>:
    16f6:	22d8           	movel %a0@+,%a1@+

000016f8 <.lit0_mat7>:
    16f8:	d241           	addw %d1,%d1
    16fa:	4441           	negw %d1
    16fc:	45f1 10fe      	lea %a1@(fffffffe,%d1:w),%a2
    1700:	32da           	movew %a2@+,%a1@+
    1702:	32da           	movew %a2@+,%a1@+
    1704:	32da           	movew %a2@+,%a1@+
    1706:	32da           	movew %a2@+,%a1@+
    1708:	32da           	movew %a2@+,%a1@+
    170a:	32da           	movew %a2@+,%a1@+
    170c:	32da           	movew %a2@+,%a1@+
    170e:	32da           	movew %a2@+,%a1@+
    1710:	7200           	moveq #0,%d1
    1712:	7000           	moveq #0,%d0
    1714:	1018           	moveb %a0@+,%d0
    1716:	1218           	moveb %a0@+,%d1
    1718:	d040           	addw %d0,%d0
    171a:	d040           	addw %d0,%d0
    171c:	2873 0000      	moveal %a3@(0,%d0:w),%a4
    1720:	4ed4           	jmp %a4@

00001722 <.litF_mat7>:
    1722:	22d8           	movel %a0@+,%a1@+

00001724 <.litD_mat7>:
    1724:	22d8           	movel %a0@+,%a1@+

00001726 <.litB_mat7>:
    1726:	22d8           	movel %a0@+,%a1@+

00001728 <.lit9_mat7>:
    1728:	22d8           	movel %a0@+,%a1@+

0000172a <.lit7_mat7>:
    172a:	22d8           	movel %a0@+,%a1@+

0000172c <.lit5_mat7>:
    172c:	22d8           	movel %a0@+,%a1@+

0000172e <.lit3_mat7>:
    172e:	22d8           	movel %a0@+,%a1@+

00001730 <.lit1_mat7>:
    1730:	32d8           	movew %a0@+,%a1@+
    1732:	d241           	addw %d1,%d1
    1734:	4441           	negw %d1
    1736:	45f1 10fe      	lea %a1@(fffffffe,%d1:w),%a2
    173a:	32da           	movew %a2@+,%a1@+
    173c:	32da           	movew %a2@+,%a1@+
    173e:	32da           	movew %a2@+,%a1@+
    1740:	32da           	movew %a2@+,%a1@+
    1742:	32da           	movew %a2@+,%a1@+
    1744:	32da           	movew %a2@+,%a1@+
    1746:	32da           	movew %a2@+,%a1@+
    1748:	32da           	movew %a2@+,%a1@+
    174a:	7200           	moveq #0,%d1
    174c:	7000           	moveq #0,%d0
    174e:	1018           	moveb %a0@+,%d0
    1750:	1218           	moveb %a0@+,%d1
    1752:	d040           	addw %d0,%d0
    1754:	d040           	addw %d0,%d0
    1756:	2873 0000      	moveal %a3@(0,%d0:w),%a4
    175a:	4ed4           	jmp %a4@

0000175c <.litE_mat8>:
    175c:	22d8           	movel %a0@+,%a1@+

0000175e <.litC_mat8>:
    175e:	22d8           	movel %a0@+,%a1@+

00001760 <.litA_mat8>:
    1760:	22d8           	movel %a0@+,%a1@+

00001762 <.lit8_mat8>:
    1762:	22d8           	movel %a0@+,%a1@+

00001764 <.lit6_mat8>:
    1764:	22d8           	movel %a0@+,%a1@+

00001766 <.lit4_mat8>:
    1766:	22d8           	movel %a0@+,%a1@+

00001768 <.lit2_mat8>:
    1768:	22d8           	movel %a0@+,%a1@+

0000176a <.lit0_mat8>:
    176a:	d241           	addw %d1,%d1
    176c:	4441           	negw %d1
    176e:	45f1 10fe      	lea %a1@(fffffffe,%d1:w),%a2
    1772:	32da           	movew %a2@+,%a1@+
    1774:	32da           	movew %a2@+,%a1@+
    1776:	32da           	movew %a2@+,%a1@+
    1778:	32da           	movew %a2@+,%a1@+
    177a:	32da           	movew %a2@+,%a1@+
    177c:	32da           	movew %a2@+,%a1@+
    177e:	32da           	movew %a2@+,%a1@+
    1780:	32da           	movew %a2@+,%a1@+
    1782:	32da           	movew %a2@+,%a1@+
    1784:	7200           	moveq #0,%d1
    1786:	7000           	moveq #0,%d0
    1788:	1018           	moveb %a0@+,%d0
    178a:	1218           	moveb %a0@+,%d1
    178c:	d040           	addw %d0,%d0
    178e:	d040           	addw %d0,%d0
    1790:	2873 0000      	moveal %a3@(0,%d0:w),%a4
    1794:	4ed4           	jmp %a4@

00001796 <.litF_mat8>:
    1796:	22d8           	movel %a0@+,%a1@+

00001798 <.litD_mat8>:
    1798:	22d8           	movel %a0@+,%a1@+

0000179a <.litB_mat8>:
    179a:	22d8           	movel %a0@+,%a1@+

0000179c <.lit9_mat8>:
    179c:	22d8           	movel %a0@+,%a1@+

0000179e <.lit7_mat8>:
    179e:	22d8           	movel %a0@+,%a1@+

000017a0 <.lit5_mat8>:
    17a0:	22d8           	movel %a0@+,%a1@+

000017a2 <.lit3_mat8>:
    17a2:	22d8           	movel %a0@+,%a1@+

000017a4 <.lit1_mat8>:
    17a4:	32d8           	movew %a0@+,%a1@+
    17a6:	d241           	addw %d1,%d1
    17a8:	4441           	negw %d1
    17aa:	45f1 10fe      	lea %a1@(fffffffe,%d1:w),%a2
    17ae:	32da           	movew %a2@+,%a1@+
    17b0:	32da           	movew %a2@+,%a1@+
    17b2:	32da           	movew %a2@+,%a1@+
    17b4:	32da           	movew %a2@+,%a1@+
    17b6:	32da           	movew %a2@+,%a1@+
    17b8:	32da           	movew %a2@+,%a1@+
    17ba:	32da           	movew %a2@+,%a1@+
    17bc:	32da           	movew %a2@+,%a1@+
    17be:	32da           	movew %a2@+,%a1@+
    17c0:	7200           	moveq #0,%d1
    17c2:	7000           	moveq #0,%d0
    17c4:	1018           	moveb %a0@+,%d0
    17c6:	1218           	moveb %a0@+,%d1
    17c8:	d040           	addw %d0,%d0
    17ca:	d040           	addw %d0,%d0
    17cc:	2873 0000      	moveal %a3@(0,%d0:w),%a4
    17d0:	4ed4           	jmp %a4@

000017d2 <.litE_mat9>:
    17d2:	22d8           	movel %a0@+,%a1@+

000017d4 <.litC_mat9>:
    17d4:	22d8           	movel %a0@+,%a1@+

000017d6 <.litA_mat9>:
    17d6:	22d8           	movel %a0@+,%a1@+

000017d8 <.lit8_mat9>:
    17d8:	22d8           	movel %a0@+,%a1@+

000017da <.lit6_mat9>:
    17da:	22d8           	movel %a0@+,%a1@+

000017dc <.lit4_mat9>:
    17dc:	22d8           	movel %a0@+,%a1@+

000017de <.lit2_mat9>:
    17de:	22d8           	movel %a0@+,%a1@+

000017e0 <.lit0_mat9>:
    17e0:	d241           	addw %d1,%d1
    17e2:	4441           	negw %d1
    17e4:	45f1 10fe      	lea %a1@(fffffffe,%d1:w),%a2
    17e8:	32da           	movew %a2@+,%a1@+
    17ea:	32da           	movew %a2@+,%a1@+
    17ec:	32da           	movew %a2@+,%a1@+
    17ee:	32da           	movew %a2@+,%a1@+
    17f0:	32da           	movew %a2@+,%a1@+
    17f2:	32da           	movew %a2@+,%a1@+
    17f4:	32da           	movew %a2@+,%a1@+
    17f6:	32da           	movew %a2@+,%a1@+
    17f8:	32da           	movew %a2@+,%a1@+
    17fa:	32da           	movew %a2@+,%a1@+
    17fc:	7200           	moveq #0,%d1
    17fe:	7000           	moveq #0,%d0
    1800:	1018           	moveb %a0@+,%d0
    1802:	1218           	moveb %a0@+,%d1
    1804:	d040           	addw %d0,%d0
    1806:	d040           	addw %d0,%d0
    1808:	2873 0000      	moveal %a3@(0,%d0:w),%a4
    180c:	4ed4           	jmp %a4@

0000180e <.litF_mat9>:
    180e:	22d8           	movel %a0@+,%a1@+

00001810 <.litD_mat9>:
    1810:	22d8           	movel %a0@+,%a1@+

00001812 <.litB_mat9>:
    1812:	22d8           	movel %a0@+,%a1@+

00001814 <.lit9_mat9>:
    1814:	22d8           	movel %a0@+,%a1@+

00001816 <.lit7_mat9>:
    1816:	22d8           	movel %a0@+,%a1@+

00001818 <.lit5_mat9>:
    1818:	22d8           	movel %a0@+,%a1@+

0000181a <.lit3_mat9>:
    181a:	22d8           	movel %a0@+,%a1@+

0000181c <.lit1_mat9>:
    181c:	32d8           	movew %a0@+,%a1@+
    181e:	d241           	addw %d1,%d1
    1820:	4441           	negw %d1
    1822:	45f1 10fe      	lea %a1@(fffffffe,%d1:w),%a2
    1826:	32da           	movew %a2@+,%a1@+
    1828:	32da           	movew %a2@+,%a1@+
    182a:	32da           	movew %a2@+,%a1@+
    182c:	32da           	movew %a2@+,%a1@+
    182e:	32da           	movew %a2@+,%a1@+
    1830:	32da           	movew %a2@+,%a1@+
    1832:	32da           	movew %a2@+,%a1@+
    1834:	32da           	movew %a2@+,%a1@+
    1836:	32da           	movew %a2@+,%a1@+
    1838:	32da           	movew %a2@+,%a1@+
    183a:	7200           	moveq #0,%d1
    183c:	7000           	moveq #0,%d0
    183e:	1018           	moveb %a0@+,%d0
    1840:	1218           	moveb %a0@+,%d1
    1842:	d040           	addw %d0,%d0
    1844:	d040           	addw %d0,%d0
    1846:	2873 0000      	moveal %a3@(0,%d0:w),%a4
    184a:	4ed4           	jmp %a4@

0000184c <.litE_matA>:
    184c:	22d8           	movel %a0@+,%a1@+

0000184e <.litC_matA>:
    184e:	22d8           	movel %a0@+,%a1@+

00001850 <.litA_matA>:
    1850:	22d8           	movel %a0@+,%a1@+

00001852 <.lit8_matA>:
    1852:	22d8           	movel %a0@+,%a1@+

00001854 <.lit6_matA>:
    1854:	22d8           	movel %a0@+,%a1@+

00001856 <.lit4_matA>:
    1856:	22d8           	movel %a0@+,%a1@+

00001858 <.lit2_matA>:
    1858:	22d8           	movel %a0@+,%a1@+

0000185a <.lit0_matA>:
    185a:	d241           	addw %d1,%d1
    185c:	4441           	negw %d1
    185e:	45f1 10fe      	lea %a1@(fffffffe,%d1:w),%a2
    1862:	32da           	movew %a2@+,%a1@+
    1864:	32da           	movew %a2@+,%a1@+
    1866:	32da           	movew %a2@+,%a1@+
    1868:	32da           	movew %a2@+,%a1@+
    186a:	32da           	movew %a2@+,%a1@+
    186c:	32da           	movew %a2@+,%a1@+
    186e:	32da           	movew %a2@+,%a1@+
    1870:	32da           	movew %a2@+,%a1@+
    1872:	32da           	movew %a2@+,%a1@+
    1874:	32da           	movew %a2@+,%a1@+
    1876:	32da           	movew %a2@+,%a1@+
    1878:	7200           	moveq #0,%d1
    187a:	7000           	moveq #0,%d0
    187c:	1018           	moveb %a0@+,%d0
    187e:	1218           	moveb %a0@+,%d1
    1880:	d040           	addw %d0,%d0
    1882:	d040           	addw %d0,%d0
    1884:	2873 0000      	moveal %a3@(0,%d0:w),%a4
    1888:	4ed4           	jmp %a4@

0000188a <.litF_matA>:
    188a:	22d8           	movel %a0@+,%a1@+

0000188c <.litD_matA>:
    188c:	22d8           	movel %a0@+,%a1@+

0000188e <.litB_matA>:
    188e:	22d8           	movel %a0@+,%a1@+

00001890 <.lit9_matA>:
    1890:	22d8           	movel %a0@+,%a1@+

00001892 <.lit7_matA>:
    1892:	22d8           	movel %a0@+,%a1@+

00001894 <.lit5_matA>:
    1894:	22d8           	movel %a0@+,%a1@+

00001896 <.lit3_matA>:
    1896:	22d8           	movel %a0@+,%a1@+

00001898 <.lit1_matA>:
    1898:	32d8           	movew %a0@+,%a1@+
    189a:	d241           	addw %d1,%d1
    189c:	4441           	negw %d1
    189e:	45f1 10fe      	lea %a1@(fffffffe,%d1:w),%a2
    18a2:	32da           	movew %a2@+,%a1@+
    18a4:	32da           	movew %a2@+,%a1@+
    18a6:	32da           	movew %a2@+,%a1@+
    18a8:	32da           	movew %a2@+,%a1@+
    18aa:	32da           	movew %a2@+,%a1@+
    18ac:	32da           	movew %a2@+,%a1@+
    18ae:	32da           	movew %a2@+,%a1@+
    18b0:	32da           	movew %a2@+,%a1@+
    18b2:	32da           	movew %a2@+,%a1@+
    18b4:	32da           	movew %a2@+,%a1@+
    18b6:	32da           	movew %a2@+,%a1@+
    18b8:	7200           	moveq #0,%d1
    18ba:	7000           	moveq #0,%d0
    18bc:	1018           	moveb %a0@+,%d0
    18be:	1218           	moveb %a0@+,%d1
    18c0:	d040           	addw %d0,%d0
    18c2:	d040           	addw %d0,%d0
    18c4:	2873 0000      	moveal %a3@(0,%d0:w),%a4
    18c8:	4ed4           	jmp %a4@

000018ca <.litE_matB>:
    18ca:	22d8           	movel %a0@+,%a1@+

000018cc <.litC_matB>:
    18cc:	22d8           	movel %a0@+,%a1@+

000018ce <.litA_matB>:
    18ce:	22d8           	movel %a0@+,%a1@+

000018d0 <.lit8_matB>:
    18d0:	22d8           	movel %a0@+,%a1@+

000018d2 <.lit6_matB>:
    18d2:	22d8           	movel %a0@+,%a1@+

000018d4 <.lit4_matB>:
    18d4:	22d8           	movel %a0@+,%a1@+

000018d6 <.lit2_matB>:
    18d6:	22d8           	movel %a0@+,%a1@+

000018d8 <.lit0_matB>:
    18d8:	d241           	addw %d1,%d1
    18da:	4441           	negw %d1
    18dc:	45f1 10fe      	lea %a1@(fffffffe,%d1:w),%a2
    18e0:	32da           	movew %a2@+,%a1@+
    18e2:	32da           	movew %a2@+,%a1@+
    18e4:	32da           	movew %a2@+,%a1@+
    18e6:	32da           	movew %a2@+,%a1@+
    18e8:	32da           	movew %a2@+,%a1@+
    18ea:	32da           	movew %a2@+,%a1@+
    18ec:	32da           	movew %a2@+,%a1@+
    18ee:	32da           	movew %a2@+,%a1@+
    18f0:	32da           	movew %a2@+,%a1@+
    18f2:	32da           	movew %a2@+,%a1@+
    18f4:	32da           	movew %a2@+,%a1@+
    18f6:	32da           	movew %a2@+,%a1@+
    18f8:	7200           	moveq #0,%d1
    18fa:	7000           	moveq #0,%d0
    18fc:	1018           	moveb %a0@+,%d0
    18fe:	1218           	moveb %a0@+,%d1
    1900:	d040           	addw %d0,%d0
    1902:	d040           	addw %d0,%d0
    1904:	2873 0000      	moveal %a3@(0,%d0:w),%a4
    1908:	4ed4           	jmp %a4@

0000190a <.litF_matB>:
    190a:	22d8           	movel %a0@+,%a1@+

0000190c <.litD_matB>:
    190c:	22d8           	movel %a0@+,%a1@+

0000190e <.litB_matB>:
    190e:	22d8           	movel %a0@+,%a1@+

00001910 <.lit9_matB>:
    1910:	22d8           	movel %a0@+,%a1@+

00001912 <.lit7_matB>:
    1912:	22d8           	movel %a0@+,%a1@+

00001914 <.lit5_matB>:
    1914:	22d8           	movel %a0@+,%a1@+

00001916 <.lit3_matB>:
    1916:	22d8           	movel %a0@+,%a1@+

00001918 <.lit1_matB>:
    1918:	32d8           	movew %a0@+,%a1@+
    191a:	d241           	addw %d1,%d1
    191c:	4441           	negw %d1
    191e:	45f1 10fe      	lea %a1@(fffffffe,%d1:w),%a2
    1922:	32da           	movew %a2@+,%a1@+
    1924:	32da           	movew %a2@+,%a1@+
    1926:	32da           	movew %a2@+,%a1@+
    1928:	32da           	movew %a2@+,%a1@+
    192a:	32da           	movew %a2@+,%a1@+
    192c:	32da           	movew %a2@+,%a1@+
    192e:	32da           	movew %a2@+,%a1@+
    1930:	32da           	movew %a2@+,%a1@+
    1932:	32da           	movew %a2@+,%a1@+
    1934:	32da           	movew %a2@+,%a1@+
    1936:	32da           	movew %a2@+,%a1@+
    1938:	32da           	movew %a2@+,%a1@+
    193a:	7200           	moveq #0,%d1
    193c:	7000           	moveq #0,%d0
    193e:	1018           	moveb %a0@+,%d0
    1940:	1218           	moveb %a0@+,%d1
    1942:	d040           	addw %d0,%d0
    1944:	d040           	addw %d0,%d0
    1946:	2873 0000      	moveal %a3@(0,%d0:w),%a4
    194a:	4ed4           	jmp %a4@

0000194c <.litE_matC>:
    194c:	22d8           	movel %a0@+,%a1@+

0000194e <.litC_matC>:
    194e:	22d8           	movel %a0@+,%a1@+

00001950 <.litA_matC>:
    1950:	22d8           	movel %a0@+,%a1@+

00001952 <.lit8_matC>:
    1952:	22d8           	movel %a0@+,%a1@+

00001954 <.lit6_matC>:
    1954:	22d8           	movel %a0@+,%a1@+

00001956 <.lit4_matC>:
    1956:	22d8           	movel %a0@+,%a1@+

00001958 <.lit2_matC>:
    1958:	22d8           	movel %a0@+,%a1@+

0000195a <.lit0_matC>:
    195a:	d241           	addw %d1,%d1
    195c:	4441           	negw %d1
    195e:	45f1 10fe      	lea %a1@(fffffffe,%d1:w),%a2
    1962:	32da           	movew %a2@+,%a1@+
    1964:	32da           	movew %a2@+,%a1@+
    1966:	32da           	movew %a2@+,%a1@+
    1968:	32da           	movew %a2@+,%a1@+
    196a:	32da           	movew %a2@+,%a1@+
    196c:	32da           	movew %a2@+,%a1@+
    196e:	32da           	movew %a2@+,%a1@+
    1970:	32da           	movew %a2@+,%a1@+
    1972:	32da           	movew %a2@+,%a1@+
    1974:	32da           	movew %a2@+,%a1@+
    1976:	32da           	movew %a2@+,%a1@+
    1978:	32da           	movew %a2@+,%a1@+
    197a:	32da           	movew %a2@+,%a1@+
    197c:	7200           	moveq #0,%d1
    197e:	7000           	moveq #0,%d0
    1980:	1018           	moveb %a0@+,%d0
    1982:	1218           	moveb %a0@+,%d1
    1984:	d040           	addw %d0,%d0
    1986:	d040           	addw %d0,%d0
    1988:	2873 0000      	moveal %a3@(0,%d0:w),%a4
    198c:	4ed4           	jmp %a4@

0000198e <.litF_matC>:
    198e:	22d8           	movel %a0@+,%a1@+

00001990 <.litD_matC>:
    1990:	22d8           	movel %a0@+,%a1@+

00001992 <.litB_matC>:
    1992:	22d8           	movel %a0@+,%a1@+

00001994 <.lit9_matC>:
    1994:	22d8           	movel %a0@+,%a1@+

00001996 <.lit7_matC>:
    1996:	22d8           	movel %a0@+,%a1@+

00001998 <.lit5_matC>:
    1998:	22d8           	movel %a0@+,%a1@+

0000199a <.lit3_matC>:
    199a:	22d8           	movel %a0@+,%a1@+

0000199c <.lit1_matC>:
    199c:	32d8           	movew %a0@+,%a1@+
    199e:	d241           	addw %d1,%d1
    19a0:	4441           	negw %d1
    19a2:	45f1 10fe      	lea %a1@(fffffffe,%d1:w),%a2
    19a6:	32da           	movew %a2@+,%a1@+
    19a8:	32da           	movew %a2@+,%a1@+
    19aa:	32da           	movew %a2@+,%a1@+
    19ac:	32da           	movew %a2@+,%a1@+
    19ae:	32da           	movew %a2@+,%a1@+
    19b0:	32da           	movew %a2@+,%a1@+
    19b2:	32da           	movew %a2@+,%a1@+
    19b4:	32da           	movew %a2@+,%a1@+
    19b6:	32da           	movew %a2@+,%a1@+
    19b8:	32da           	movew %a2@+,%a1@+
    19ba:	32da           	movew %a2@+,%a1@+
    19bc:	32da           	movew %a2@+,%a1@+
    19be:	32da           	movew %a2@+,%a1@+
    19c0:	7200           	moveq #0,%d1
    19c2:	7000           	moveq #0,%d0
    19c4:	1018           	moveb %a0@+,%d0
    19c6:	1218           	moveb %a0@+,%d1
    19c8:	d040           	addw %d0,%d0
    19ca:	d040           	addw %d0,%d0
    19cc:	2873 0000      	moveal %a3@(0,%d0:w),%a4
    19d0:	4ed4           	jmp %a4@

000019d2 <.litE_matD>:
    19d2:	22d8           	movel %a0@+,%a1@+

000019d4 <.litC_matD>:
    19d4:	22d8           	movel %a0@+,%a1@+

000019d6 <.litA_matD>:
    19d6:	22d8           	movel %a0@+,%a1@+

000019d8 <.lit8_matD>:
    19d8:	22d8           	movel %a0@+,%a1@+

000019da <.lit6_matD>:
    19da:	22d8           	movel %a0@+,%a1@+

000019dc <.lit4_matD>:
    19dc:	22d8           	movel %a0@+,%a1@+

000019de <.lit2_matD>:
    19de:	22d8           	movel %a0@+,%a1@+

000019e0 <.lit0_matD>:
    19e0:	d241           	addw %d1,%d1
    19e2:	4441           	negw %d1
    19e4:	45f1 10fe      	lea %a1@(fffffffe,%d1:w),%a2
    19e8:	32da           	movew %a2@+,%a1@+
    19ea:	32da           	movew %a2@+,%a1@+
    19ec:	32da           	movew %a2@+,%a1@+
    19ee:	32da           	movew %a2@+,%a1@+
    19f0:	32da           	movew %a2@+,%a1@+
    19f2:	32da           	movew %a2@+,%a1@+
    19f4:	32da           	movew %a2@+,%a1@+
    19f6:	32da           	movew %a2@+,%a1@+
    19f8:	32da           	movew %a2@+,%a1@+
    19fa:	32da           	movew %a2@+,%a1@+
    19fc:	32da           	movew %a2@+,%a1@+
    19fe:	32da           	movew %a2@+,%a1@+
    1a00:	32da           	movew %a2@+,%a1@+
    1a02:	32da           	movew %a2@+,%a1@+
    1a04:	7200           	moveq #0,%d1
    1a06:	7000           	moveq #0,%d0
    1a08:	1018           	moveb %a0@+,%d0
    1a0a:	1218           	moveb %a0@+,%d1
    1a0c:	d040           	addw %d0,%d0
    1a0e:	d040           	addw %d0,%d0
    1a10:	2873 0000      	moveal %a3@(0,%d0:w),%a4
    1a14:	4ed4           	jmp %a4@

00001a16 <.litF_matD>:
    1a16:	22d8           	movel %a0@+,%a1@+

00001a18 <.litD_matD>:
    1a18:	22d8           	movel %a0@+,%a1@+

00001a1a <.litB_matD>:
    1a1a:	22d8           	movel %a0@+,%a1@+

00001a1c <.lit9_matD>:
    1a1c:	22d8           	movel %a0@+,%a1@+

00001a1e <.lit7_matD>:
    1a1e:	22d8           	movel %a0@+,%a1@+

00001a20 <.lit5_matD>:
    1a20:	22d8           	movel %a0@+,%a1@+

00001a22 <.lit3_matD>:
    1a22:	22d8           	movel %a0@+,%a1@+

00001a24 <.lit1_matD>:
    1a24:	32d8           	movew %a0@+,%a1@+
    1a26:	d241           	addw %d1,%d1
    1a28:	4441           	negw %d1
    1a2a:	45f1 10fe      	lea %a1@(fffffffe,%d1:w),%a2
    1a2e:	32da           	movew %a2@+,%a1@+
    1a30:	32da           	movew %a2@+,%a1@+
    1a32:	32da           	movew %a2@+,%a1@+
    1a34:	32da           	movew %a2@+,%a1@+
    1a36:	32da           	movew %a2@+,%a1@+
    1a38:	32da           	movew %a2@+,%a1@+
    1a3a:	32da           	movew %a2@+,%a1@+
    1a3c:	32da           	movew %a2@+,%a1@+
    1a3e:	32da           	movew %a2@+,%a1@+
    1a40:	32da           	movew %a2@+,%a1@+
    1a42:	32da           	movew %a2@+,%a1@+
    1a44:	32da           	movew %a2@+,%a1@+
    1a46:	32da           	movew %a2@+,%a1@+
    1a48:	32da           	movew %a2@+,%a1@+
    1a4a:	7200           	moveq #0,%d1
    1a4c:	7000           	moveq #0,%d0
    1a4e:	1018           	moveb %a0@+,%d0
    1a50:	1218           	moveb %a0@+,%d1
    1a52:	d040           	addw %d0,%d0
    1a54:	d040           	addw %d0,%d0
    1a56:	2873 0000      	moveal %a3@(0,%d0:w),%a4
    1a5a:	4ed4           	jmp %a4@

00001a5c <.litE_matE>:
    1a5c:	22d8           	movel %a0@+,%a1@+

00001a5e <.litC_matE>:
    1a5e:	22d8           	movel %a0@+,%a1@+

00001a60 <.litA_matE>:
    1a60:	22d8           	movel %a0@+,%a1@+

00001a62 <.lit8_matE>:
    1a62:	22d8           	movel %a0@+,%a1@+

00001a64 <.lit6_matE>:
    1a64:	22d8           	movel %a0@+,%a1@+

00001a66 <.lit4_matE>:
    1a66:	22d8           	movel %a0@+,%a1@+

00001a68 <.lit2_matE>:
    1a68:	22d8           	movel %a0@+,%a1@+

00001a6a <.lit0_matE>:
    1a6a:	d241           	addw %d1,%d1
    1a6c:	4441           	negw %d1
    1a6e:	45f1 10fe      	lea %a1@(fffffffe,%d1:w),%a2
    1a72:	32da           	movew %a2@+,%a1@+
    1a74:	32da           	movew %a2@+,%a1@+
    1a76:	32da           	movew %a2@+,%a1@+
    1a78:	32da           	movew %a2@+,%a1@+
    1a7a:	32da           	movew %a2@+,%a1@+
    1a7c:	32da           	movew %a2@+,%a1@+
    1a7e:	32da           	movew %a2@+,%a1@+
    1a80:	32da           	movew %a2@+,%a1@+
    1a82:	32da           	movew %a2@+,%a1@+
    1a84:	32da           	movew %a2@+,%a1@+
    1a86:	32da           	movew %a2@+,%a1@+
    1a88:	32da           	movew %a2@+,%a1@+
    1a8a:	32da           	movew %a2@+,%a1@+
    1a8c:	32da           	movew %a2@+,%a1@+
    1a8e:	32da           	movew %a2@+,%a1@+
    1a90:	7200           	moveq #0,%d1
    1a92:	7000           	moveq #0,%d0
    1a94:	1018           	moveb %a0@+,%d0
    1a96:	1218           	moveb %a0@+,%d1
    1a98:	d040           	addw %d0,%d0
    1a9a:	d040           	addw %d0,%d0
    1a9c:	2873 0000      	moveal %a3@(0,%d0:w),%a4
    1aa0:	4ed4           	jmp %a4@

00001aa2 <.litF_matE>:
    1aa2:	22d8           	movel %a0@+,%a1@+

00001aa4 <.litD_matE>:
    1aa4:	22d8           	movel %a0@+,%a1@+

00001aa6 <.litB_matE>:
    1aa6:	22d8           	movel %a0@+,%a1@+

00001aa8 <.lit9_matE>:
    1aa8:	22d8           	movel %a0@+,%a1@+

00001aaa <.lit7_matE>:
    1aaa:	22d8           	movel %a0@+,%a1@+

00001aac <.lit5_matE>:
    1aac:	22d8           	movel %a0@+,%a1@+

00001aae <.lit3_matE>:
    1aae:	22d8           	movel %a0@+,%a1@+

00001ab0 <.lit1_matE>:
    1ab0:	32d8           	movew %a0@+,%a1@+
    1ab2:	d241           	addw %d1,%d1
    1ab4:	4441           	negw %d1
    1ab6:	45f1 10fe      	lea %a1@(fffffffe,%d1:w),%a2
    1aba:	32da           	movew %a2@+,%a1@+
    1abc:	32da           	movew %a2@+,%a1@+
    1abe:	32da           	movew %a2@+,%a1@+
    1ac0:	32da           	movew %a2@+,%a1@+
    1ac2:	32da           	movew %a2@+,%a1@+
    1ac4:	32da           	movew %a2@+,%a1@+
    1ac6:	32da           	movew %a2@+,%a1@+
    1ac8:	32da           	movew %a2@+,%a1@+
    1aca:	32da           	movew %a2@+,%a1@+
    1acc:	32da           	movew %a2@+,%a1@+
    1ace:	32da           	movew %a2@+,%a1@+
    1ad0:	32da           	movew %a2@+,%a1@+
    1ad2:	32da           	movew %a2@+,%a1@+
    1ad4:	32da           	movew %a2@+,%a1@+
    1ad6:	32da           	movew %a2@+,%a1@+
    1ad8:	7200           	moveq #0,%d1
    1ada:	7000           	moveq #0,%d0
    1adc:	1018           	moveb %a0@+,%d0
    1ade:	1218           	moveb %a0@+,%d1
    1ae0:	d040           	addw %d0,%d0
    1ae2:	d040           	addw %d0,%d0
    1ae4:	2873 0000      	moveal %a3@(0,%d0:w),%a4
    1ae8:	4ed4           	jmp %a4@

00001aea <.litE_matF>:
    1aea:	22d8           	movel %a0@+,%a1@+

00001aec <.litC_matF>:
    1aec:	22d8           	movel %a0@+,%a1@+

00001aee <.litA_matF>:
    1aee:	22d8           	movel %a0@+,%a1@+

00001af0 <.lit8_matF>:
    1af0:	22d8           	movel %a0@+,%a1@+

00001af2 <.lit6_matF>:
    1af2:	22d8           	movel %a0@+,%a1@+

00001af4 <.lit4_matF>:
    1af4:	22d8           	movel %a0@+,%a1@+

00001af6 <.lit2_matF>:
    1af6:	22d8           	movel %a0@+,%a1@+

00001af8 <.lit0_matF>:
    1af8:	d241           	addw %d1,%d1
    1afa:	4441           	negw %d1
    1afc:	45f1 10fe      	lea %a1@(fffffffe,%d1:w),%a2
    1b00:	32da           	movew %a2@+,%a1@+
    1b02:	32da           	movew %a2@+,%a1@+
    1b04:	32da           	movew %a2@+,%a1@+
    1b06:	32da           	movew %a2@+,%a1@+
    1b08:	32da           	movew %a2@+,%a1@+
    1b0a:	32da           	movew %a2@+,%a1@+
    1b0c:	32da           	movew %a2@+,%a1@+
    1b0e:	32da           	movew %a2@+,%a1@+
    1b10:	32da           	movew %a2@+,%a1@+
    1b12:	32da           	movew %a2@+,%a1@+
    1b14:	32da           	movew %a2@+,%a1@+
    1b16:	32da           	movew %a2@+,%a1@+
    1b18:	32da           	movew %a2@+,%a1@+
    1b1a:	32da           	movew %a2@+,%a1@+
    1b1c:	32da           	movew %a2@+,%a1@+
    1b1e:	32da           	movew %a2@+,%a1@+
    1b20:	7200           	moveq #0,%d1
    1b22:	7000           	moveq #0,%d0
    1b24:	1018           	moveb %a0@+,%d0
    1b26:	1218           	moveb %a0@+,%d1
    1b28:	d040           	addw %d0,%d0
    1b2a:	d040           	addw %d0,%d0
    1b2c:	2873 0000      	moveal %a3@(0,%d0:w),%a4
    1b30:	4ed4           	jmp %a4@

00001b32 <.litF_matF>:
    1b32:	22d8           	movel %a0@+,%a1@+

00001b34 <.litD_matF>:
    1b34:	22d8           	movel %a0@+,%a1@+

00001b36 <.litB_matF>:
    1b36:	22d8           	movel %a0@+,%a1@+

00001b38 <.lit9_matF>:
    1b38:	22d8           	movel %a0@+,%a1@+

00001b3a <.lit7_matF>:
    1b3a:	22d8           	movel %a0@+,%a1@+

00001b3c <.lit5_matF>:
    1b3c:	22d8           	movel %a0@+,%a1@+

00001b3e <.lit3_matF>:
    1b3e:	22d8           	movel %a0@+,%a1@+

00001b40 <.lit1_matF>:
    1b40:	32d8           	movew %a0@+,%a1@+
    1b42:	d241           	addw %d1,%d1
    1b44:	4441           	negw %d1
    1b46:	45f1 10fe      	lea %a1@(fffffffe,%d1:w),%a2
    1b4a:	32da           	movew %a2@+,%a1@+
    1b4c:	32da           	movew %a2@+,%a1@+
    1b4e:	32da           	movew %a2@+,%a1@+
    1b50:	32da           	movew %a2@+,%a1@+
    1b52:	32da           	movew %a2@+,%a1@+
    1b54:	32da           	movew %a2@+,%a1@+
    1b56:	32da           	movew %a2@+,%a1@+
    1b58:	32da           	movew %a2@+,%a1@+
    1b5a:	32da           	movew %a2@+,%a1@+
    1b5c:	32da           	movew %a2@+,%a1@+
    1b5e:	32da           	movew %a2@+,%a1@+
    1b60:	32da           	movew %a2@+,%a1@+
    1b62:	32da           	movew %a2@+,%a1@+
    1b64:	32da           	movew %a2@+,%a1@+
    1b66:	32da           	movew %a2@+,%a1@+
    1b68:	32da           	movew %a2@+,%a1@+
    1b6a:	7200           	moveq #0,%d1
    1b6c:	7000           	moveq #0,%d0
    1b6e:	1018           	moveb %a0@+,%d0
    1b70:	1218           	moveb %a0@+,%d1
    1b72:	d040           	addw %d0,%d0
    1b74:	d040           	addw %d0,%d0
    1b76:	2873 0000      	moveal %a3@(0,%d0:w),%a4
    1b7a:	4ed4           	jmp %a4@

00001b7c <GaugeLogic_tick_non_follow_mode>:
    1b7c:	48e7 3800      	moveml %d2-%d4,%sp@-
    1b80:	206f 0010      	moveal %sp@(16),%a0
    1b84:	0c28 0002 002b 	cmpib #2,%a0@(43)
    1b8a:	6700 0124      	beqw 1cb0 <GaugeLogic_tick_non_follow_mode+0x134>
    1b8e:	7400           	moveq #0,%d2
    1b90:	3628 002a      	movew %a0@(42),%d3
    1b94:	1028 0022      	moveb %a0@(34),%d0
    1b98:	0c43 0102      	cmpiw #258,%d3
    1b9c:	6700 00ee      	beqw 1c8c <GaugeLogic_tick_non_follow_mode+0x110>
    1ba0:	1828 0023      	moveb %a0@(35),%d4
    1ba4:	4a00           	tstb %d0
    1ba6:	676c           	beqs 1c14 <GaugeLogic_tick_non_follow_mode+0x98>
    1ba8:	3028 0014      	movew %a0@(20),%d0
    1bac:	3228 0012      	movew %a0@(18),%d1
    1bb0:	b041           	cmpw %d1,%d0
    1bb2:	6760           	beqs 1c14 <GaugeLogic_tick_non_follow_mode+0x98>
    1bb4:	6400 0098      	bccw 1c4e <GaugeLogic_tick_non_follow_mode+0xd2>
    1bb8:	4a82           	tstl %d2
    1bba:	6658           	bnes 1c14 <GaugeLogic_tick_non_follow_mode+0x98>
    1bbc:	3401           	movew %d1,%d2
    1bbe:	9440           	subw %d0,%d2
    1bc0:	0282 0000 ffff 	andil #65535,%d2
    1bc6:	0284 0000 00ff 	andil #255,%d4
    1bcc:	e8a2           	asrl %d4,%d2
    1bce:	5240           	addqw #1,%d0
    1bd0:	d042           	addw %d2,%d0
    1bd2:	b041           	cmpw %d1,%d0
    1bd4:	6200 01b8      	bhiw 1d8e <GaugeLogic_tick_non_follow_mode+0x212>
    1bd8:	3240           	moveaw %d0,%a1
    1bda:	3149 0014      	movew %a1,%a0@(20)
    1bde:	3268 0004      	moveaw %a0@(4),%a1
    1be2:	b049           	cmpw %a1,%d0
    1be4:	6304           	blss 1bea <GaugeLogic_tick_non_follow_mode+0x6e>
    1be6:	3149 0014      	movew %a1,%a0@(20)
    1bea:	0c43 0102      	cmpiw #258,%d3
    1bee:	6624           	bnes 1c14 <GaugeLogic_tick_non_follow_mode+0x98>
    1bf0:	3141 0016      	movew %d1,%a0@(22)
    1bf4:	1028 0020      	moveb %a0@(32),%d0
    1bf8:	6600 0086      	bnew 1c80 <GaugeLogic_tick_non_follow_mode+0x104>
    1bfc:	1028 0021      	moveb %a0@(33),%d0
    1c00:	6600 0178      	bnew 1d7a <GaugeLogic_tick_non_follow_mode+0x1fe>
    1c04:	3028 0014      	movew %a0@(20),%d0
    1c08:	b240           	cmpw %d0,%d1
    1c0a:	627a           	bhis 1c86 <GaugeLogic_tick_non_follow_mode+0x10a>
    1c0c:	3140 0016      	movew %d0,%a0@(22)
    1c10:	4228 002b      	clrb %a0@(43)
    1c14:	1028 002c      	moveb %a0@(44),%d0
    1c18:	670c           	beqs 1c26 <GaugeLogic_tick_non_follow_mode+0xaa>
    1c1a:	3228 001a      	movew %a0@(26),%d1
    1c1e:	b268 0002      	cmpw %a0@(2),%d1
    1c22:	54c0           	scc %d0
    1c24:	4400           	negb %d0
    1c26:	4228 0020      	clrb %a0@(32)
    1c2a:	0c28 0005 0029 	cmpib #5,%a0@(41)
    1c30:	6254           	bhis 1c86 <GaugeLogic_tick_non_follow_mode+0x10a>
    1c32:	7200           	moveq #0,%d1
    1c34:	1228 0029      	moveb %a0@(41),%d1
    1c38:	d281           	addl %d1,%d1
    1c3a:	323b 1806      	movew %pc@(1c42 <GaugeLogic_tick_non_follow_mode+0xc6>,%d1:l),%d1
    1c3e:	4efb 1002      	jmp %pc@(1c42 <GaugeLogic_tick_non_follow_mode+0xc6>,%d1:w)
    1c42:	0120           	btst %d0,%a0@-
    1c44:	0044 00fe      	oriw #254,%d4
    1c48:	00d8           	.short 0x00d8
    1c4a:	00ac 008e 3400 	oril #9319424,%a4@(21314)
    1c50:	5342 
    1c52:	9041           	subw %d1,%d0
    1c54:	0280 0000 ffff 	andil #65535,%d0
    1c5a:	0284 0000 00ff 	andil #255,%d4
    1c60:	e8a0           	asrl %d4,%d0
    1c62:	9440           	subw %d0,%d2
    1c64:	3002           	movew %d2,%d0
    1c66:	780f           	moveq #15,%d4
    1c68:	e860           	asrw %d4,%d0
    1c6a:	4640           	notw %d0
    1c6c:	c042           	andw %d2,%d0
    1c6e:	b041           	cmpw %d1,%d0
    1c70:	644e           	bccs 1cc0 <GaugeLogic_tick_non_follow_mode+0x144>
    1c72:	3141 0014      	movew %d1,%a0@(20)
    1c76:	0c43 0102      	cmpiw #258,%d3
    1c7a:	6700 ff74      	beqw 1bf0 <GaugeLogic_tick_non_follow_mode+0x74>
    1c7e:	6094           	bras 1c14 <GaugeLogic_tick_non_follow_mode+0x98>
    1c80:	5300           	subqb #1,%d0
    1c82:	1140 0020      	moveb %d0,%a0@(32)
    1c86:	4cdf 001c      	moveml %sp@+,%d2-%d4
    1c8a:	4e75           	rts
    1c8c:	1828 0026      	moveb %a0@(38),%d4
    1c90:	3228 0012      	movew %a0@(18),%d1
    1c94:	4a00           	tstb %d0
    1c96:	6700 ff58      	beqw 1bf0 <GaugeLogic_tick_non_follow_mode+0x74>
    1c9a:	3028 0014      	movew %a0@(20),%d0
    1c9e:	b240           	cmpw %d0,%d1
    1ca0:	6700 ff4e      	beqw 1bf0 <GaugeLogic_tick_non_follow_mode+0x74>
    1ca4:	63a8           	blss 1c4e <GaugeLogic_tick_non_follow_mode+0xd2>
    1ca6:	4a82           	tstl %d2
    1ca8:	6700 ff12      	beqw 1bbc <GaugeLogic_tick_non_follow_mode+0x40>
    1cac:	6000 ff42      	braw 1bf0 <GaugeLogic_tick_non_follow_mode+0x74>
    1cb0:	4a68 0020      	tstw %a0@(32)
    1cb4:	56c2           	sne %d2
    1cb6:	4882           	extw %d2
    1cb8:	48c2           	extl %d2
    1cba:	4482           	negl %d2
    1cbc:	6000 fed2      	braw 1b90 <GaugeLogic_tick_non_follow_mode+0x14>
    1cc0:	3140 0014      	movew %d0,%a0@(20)
    1cc4:	0c43 0102      	cmpiw #258,%d3
    1cc8:	6700 ff26      	beqw 1bf0 <GaugeLogic_tick_non_follow_mode+0x74>
    1ccc:	6000 ff46      	braw 1c14 <GaugeLogic_tick_non_follow_mode+0x98>
    1cd0:	3168 0014 0016 	movew %a0@(20),%a0@(22)
    1cd6:	4228 002b      	clrb %a0@(43)
    1cda:	4a00           	tstb %d0
    1cdc:	6754           	beqs 1d32 <GaugeLogic_tick_non_follow_mode+0x1b6>
    1cde:	117c 0001 0021 	moveb #1,%a0@(33)
    1ce4:	5268 0018      	addqw #1,%a0@(24)
    1ce8:	4cdf 001c      	moveml %sp@+,%d2-%d4
    1cec:	4e75           	rts
    1cee:	3228 0014      	movew %a0@(20),%d1
    1cf2:	4a00           	tstb %d0
    1cf4:	6700 00a0      	beqw 1d96 <GaugeLogic_tick_non_follow_mode+0x21a>
    1cf8:	3028 0004      	movew %a0@(4),%d0
    1cfc:	3140 0016      	movew %d0,%a0@(22)
    1d00:	117c 0001 0021 	moveb #1,%a0@(33)
    1d06:	5268 0018      	addqw #1,%a0@(24)
    1d0a:	b240           	cmpw %d0,%d1
    1d0c:	55c0           	scs %d0
    1d0e:	4400           	negb %d0
    1d10:	1140 002b      	moveb %d0,%a0@(43)
    1d14:	4cdf 001c      	moveml %sp@+,%d2-%d4
    1d18:	4e75           	rts
    1d1a:	3228 0004      	movew %a0@(4),%d1
    1d1e:	3141 0016      	movew %d1,%a0@(22)
    1d22:	b268 0014      	cmpw %a0@(20),%d1
    1d26:	52c1           	shi %d1
    1d28:	4401           	negb %d1
    1d2a:	1141 002b      	moveb %d1,%a0@(43)
    1d2e:	4a00           	tstb %d0
    1d30:	66ac           	bnes 1cde <GaugeLogic_tick_non_follow_mode+0x162>
    1d32:	4228 0021      	clrb %a0@(33)
    1d36:	4268 0018      	clrw %a0@(24)
    1d3a:	4cdf 001c      	moveml %sp@+,%d2-%d4
    1d3e:	4e75           	rts
    1d40:	3028 0004      	movew %a0@(4),%d0
    1d44:	3140 0016      	movew %d0,%a0@(22)
    1d48:	4228 0021      	clrb %a0@(33)
    1d4c:	4268 0018      	clrw %a0@(24)
    1d50:	b068 0014      	cmpw %a0@(20),%d0
    1d54:	52c0           	shi %d0
    1d56:	4400           	negb %d0
    1d58:	1140 002b      	moveb %d0,%a0@(43)
    1d5c:	4cdf 001c      	moveml %sp@+,%d2-%d4
    1d60:	4e75           	rts
    1d62:	3168 0014 0016 	movew %a0@(20),%a0@(22)
    1d68:	4228 0021      	clrb %a0@(33)
    1d6c:	4268 0018      	clrw %a0@(24)
    1d70:	4228 002b      	clrb %a0@(43)
    1d74:	4cdf 001c      	moveml %sp@+,%d2-%d4
    1d78:	4e75           	rts
    1d7a:	5268 0018      	addqw #1,%a0@(24)
    1d7e:	5300           	subqb #1,%d0
    1d80:	1140 0021      	moveb %d0,%a0@(33)
    1d84:	6600 ff00      	bnew 1c86 <GaugeLogic_tick_non_follow_mode+0x10a>
    1d88:	4268 0018      	clrw %a0@(24)
    1d8c:	60ac           	bras 1d3a <GaugeLogic_tick_non_follow_mode+0x1be>
    1d8e:	3241           	moveaw %d1,%a1
    1d90:	3001           	movew %d1,%d0
    1d92:	6000 fe46      	braw 1bda <GaugeLogic_tick_non_follow_mode+0x5e>
    1d96:	3141 0016      	movew %d1,%a0@(22)
    1d9a:	4228 0021      	clrb %a0@(33)
    1d9e:	4268 0018      	clrw %a0@(24)
    1da2:	4228 002b      	clrb %a0@(43)
    1da6:	4cdf 001c      	moveml %sp@+,%d2-%d4
    1daa:	4e75           	rts

00001dac <GaugeLogic_tick_follow_mode>:
    1dac:	48e7 3c00      	moveml %d2-%d5,%sp@-
    1db0:	206f 0014      	moveal %sp@(20),%a0
    1db4:	1628 002b      	moveb %a0@(43),%d3
    1db8:	0c03 0002      	cmpib #2,%d3
    1dbc:	6700 0128      	beqw 1ee6 <GaugeLogic_tick_follow_mode+0x13a>
    1dc0:	7200           	moveq #0,%d1
    1dc2:	3a28 002a      	movew %a0@(42),%d5
    1dc6:	1028 0022      	moveb %a0@(34),%d0
    1dca:	0c45 0102      	cmpiw #258,%d5
    1dce:	6700 00f6      	beqw 1ec6 <GaugeLogic_tick_follow_mode+0x11a>
    1dd2:	1828 0023      	moveb %a0@(35),%d4
    1dd6:	4a00           	tstb %d0
    1dd8:	674a           	beqs 1e24 <GaugeLogic_tick_follow_mode+0x78>
    1dda:	3028 0014      	movew %a0@(20),%d0
    1dde:	3428 0012      	movew %a0@(18),%d2
    1de2:	b042           	cmpw %d2,%d0
    1de4:	673e           	beqs 1e24 <GaugeLogic_tick_follow_mode+0x78>
    1de6:	b042           	cmpw %d2,%d0
    1de8:	6400 010c      	bccw 1ef6 <GaugeLogic_tick_follow_mode+0x14a>
    1dec:	4a81           	tstl %d1
    1dee:	662e           	bnes 1e1e <GaugeLogic_tick_follow_mode+0x72>
    1df0:	3202           	movew %d2,%d1
    1df2:	9240           	subw %d0,%d1
    1df4:	0281 0000 ffff 	andil #65535,%d1
    1dfa:	0284 0000 00ff 	andil #255,%d4
    1e00:	e8a1           	asrl %d4,%d1
    1e02:	5240           	addqw #1,%d0
    1e04:	d041           	addw %d1,%d0
    1e06:	b042           	cmpw %d2,%d0
    1e08:	6200 0140      	bhiw 1f4a <GaugeLogic_tick_follow_mode+0x19e>
    1e0c:	3200           	movew %d0,%d1
    1e0e:	3141 0014      	movew %d1,%a0@(20)
    1e12:	3228 0004      	movew %a0@(4),%d1
    1e16:	b240           	cmpw %d0,%d1
    1e18:	6404           	bccs 1e1e <GaugeLogic_tick_follow_mode+0x72>
    1e1a:	3141 0014      	movew %d1,%a0@(20)
    1e1e:	0c03 0002      	cmpib #2,%d3
    1e22:	675e           	beqs 1e82 <GaugeLogic_tick_follow_mode+0xd6>
    1e24:	1028 0020      	moveb %a0@(32),%d0
    1e28:	6600 0090      	bnew 1eba <GaugeLogic_tick_follow_mode+0x10e>
    1e2c:	1028 0021      	moveb %a0@(33),%d0
    1e30:	6668           	bnes 1e9a <GaugeLogic_tick_follow_mode+0xee>
    1e32:	3028 0016      	movew %a0@(22),%d0
    1e36:	3228 0014      	movew %a0@(20),%d1
    1e3a:	b240           	cmpw %d0,%d1
    1e3c:	6428           	bccs 1e66 <GaugeLogic_tick_follow_mode+0xba>
    1e3e:	3400           	movew %d0,%d2
    1e40:	5342           	subqw #1,%d2
    1e42:	9041           	subw %d1,%d0
    1e44:	0280 0000 ffff 	andil #65535,%d0
    1e4a:	7800           	moveq #0,%d4
    1e4c:	1828 0024      	moveb %a0@(36),%d4
    1e50:	e8a0           	asrl %d4,%d0
    1e52:	9440           	subw %d0,%d2
    1e54:	3002           	movew %d2,%d0
    1e56:	780f           	moveq #15,%d4
    1e58:	e860           	asrw %d4,%d0
    1e5a:	4640           	notw %d0
    1e5c:	c042           	andw %d2,%d0
    1e5e:	3140 0016      	movew %d0,%a0@(22)
    1e62:	b041           	cmpw %d1,%d0
    1e64:	644a           	bccs 1eb0 <GaugeLogic_tick_follow_mode+0x104>
    1e66:	3141 0016      	movew %d1,%a0@(22)
    1e6a:	4228 0021      	clrb %a0@(33)
    1e6e:	4268 0018      	clrw %a0@(24)
    1e72:	0c03 0001      	cmpib #1,%d3
    1e76:	6604           	bnes 1e7c <GaugeLogic_tick_follow_mode+0xd0>
    1e78:	4228 002b      	clrb %a0@(43)
    1e7c:	4cdf 003c      	moveml %sp@+,%d2-%d5
    1e80:	4e75           	rts
    1e82:	0c45 0102      	cmpiw #258,%d5
    1e86:	669c           	bnes 1e24 <GaugeLogic_tick_follow_mode+0x78>
    1e88:	3142 0016      	movew %d2,%a0@(22)
    1e8c:	1028 0020      	moveb %a0@(32),%d0
    1e90:	6628           	bnes 1eba <GaugeLogic_tick_follow_mode+0x10e>
    1e92:	1028 0021      	moveb %a0@(33),%d0
    1e96:	6700 00ba      	beqw 1f52 <GaugeLogic_tick_follow_mode+0x1a6>
    1e9a:	5268 0018      	addqw #1,%a0@(24)
    1e9e:	5300           	subqb #1,%d0
    1ea0:	1140 0021      	moveb %d0,%a0@(33)
    1ea4:	66d6           	bnes 1e7c <GaugeLogic_tick_follow_mode+0xd0>
    1ea6:	4268 0018      	clrw %a0@(24)
    1eaa:	4cdf 003c      	moveml %sp@+,%d2-%d5
    1eae:	4e75           	rts
    1eb0:	b041           	cmpw %d1,%d0
    1eb2:	67b6           	beqs 1e6a <GaugeLogic_tick_follow_mode+0xbe>
    1eb4:	4cdf 003c      	moveml %sp@+,%d2-%d5
    1eb8:	4e75           	rts
    1eba:	5300           	subqb #1,%d0
    1ebc:	1140 0020      	moveb %d0,%a0@(32)
    1ec0:	4cdf 003c      	moveml %sp@+,%d2-%d5
    1ec4:	4e75           	rts
    1ec6:	1828 0026      	moveb %a0@(38),%d4
    1eca:	4a00           	tstb %d0
    1ecc:	676c           	beqs 1f3a <GaugeLogic_tick_follow_mode+0x18e>
    1ece:	3028 0014      	movew %a0@(20),%d0
    1ed2:	3428 0012      	movew %a0@(18),%d2
    1ed6:	b042           	cmpw %d2,%d0
    1ed8:	6600 ff0c      	bnew 1de6 <GaugeLogic_tick_follow_mode+0x3a>
    1edc:	0c03 0002      	cmpib #2,%d3
    1ee0:	6600 ff42      	bnew 1e24 <GaugeLogic_tick_follow_mode+0x78>
    1ee4:	60a2           	bras 1e88 <GaugeLogic_tick_follow_mode+0xdc>
    1ee6:	4a68 0020      	tstw %a0@(32)
    1eea:	56c1           	sne %d1
    1eec:	4881           	extw %d1
    1eee:	48c1           	extl %d1
    1ef0:	4481           	negl %d1
    1ef2:	6000 fece      	braw 1dc2 <GaugeLogic_tick_follow_mode+0x16>
    1ef6:	3200           	movew %d0,%d1
    1ef8:	5341           	subqw #1,%d1
    1efa:	9042           	subw %d2,%d0
    1efc:	0280 0000 ffff 	andil #65535,%d0
    1f02:	0284 0000 00ff 	andil #255,%d4
    1f08:	e8a0           	asrl %d4,%d0
    1f0a:	9240           	subw %d0,%d1
    1f0c:	3001           	movew %d1,%d0
    1f0e:	780f           	moveq #15,%d4
    1f10:	e860           	asrw %d4,%d0
    1f12:	4640           	notw %d0
    1f14:	c041           	andw %d1,%d0
    1f16:	b042           	cmpw %d2,%d0
    1f18:	6410           	bccs 1f2a <GaugeLogic_tick_follow_mode+0x17e>
    1f1a:	3142 0014      	movew %d2,%a0@(20)
    1f1e:	0c03 0002      	cmpib #2,%d3
    1f22:	6600 ff00      	bnew 1e24 <GaugeLogic_tick_follow_mode+0x78>
    1f26:	6000 ff5a      	braw 1e82 <GaugeLogic_tick_follow_mode+0xd6>
    1f2a:	3140 0014      	movew %d0,%a0@(20)
    1f2e:	0c03 0002      	cmpib #2,%d3
    1f32:	6600 fef0      	bnew 1e24 <GaugeLogic_tick_follow_mode+0x78>
    1f36:	6000 ff4a      	braw 1e82 <GaugeLogic_tick_follow_mode+0xd6>
    1f3a:	0c03 0002      	cmpib #2,%d3
    1f3e:	6600 fee4      	bnew 1e24 <GaugeLogic_tick_follow_mode+0x78>
    1f42:	3428 0012      	movew %a0@(18),%d2
    1f46:	6000 ff40      	braw 1e88 <GaugeLogic_tick_follow_mode+0xdc>
    1f4a:	3202           	movew %d2,%d1
    1f4c:	3002           	movew %d2,%d0
    1f4e:	6000 febe      	braw 1e0e <GaugeLogic_tick_follow_mode+0x62>
    1f52:	b468 0014      	cmpw %a0@(20),%d2
    1f56:	6200 ff24      	bhiw 1e7c <GaugeLogic_tick_follow_mode+0xd0>
    1f5a:	4228 002b      	clrb %a0@(43)
    1f5e:	3168 0014 0016 	movew %a0@(20),%a0@(22)
    1f64:	4268 0018      	clrw %a0@(24)
    1f68:	6000 ff40      	braw 1eaa <GaugeLogic_tick_follow_mode+0xfe>

00001f6c <free_dynamic_buffers>:
    1f6c:	206f 0004      	moveal %sp@(4),%a0
    1f70:	2250           	moveal %a0@,%a1
    1f72:	b2fc 0000      	cmpaw #0,%a1
    1f76:	6708           	beqs 1f80 <free_dynamic_buffers+0x14>
    1f78:	0269 fffe fffe 	andiw #-2,%a1@(-2)
    1f7e:	4290           	clrl %a0@
    1f80:	2268 0004      	moveal %a0@(4),%a1
    1f84:	b2fc 0000      	cmpaw #0,%a1
    1f88:	670a           	beqs 1f94 <free_dynamic_buffers+0x28>
    1f8a:	0269 fffe fffe 	andiw #-2,%a1@(-2)
    1f90:	42a8 0004      	clrl %a0@(4)
    1f94:	2268 0008      	moveal %a0@(8),%a1
    1f98:	b2fc 0000      	cmpaw #0,%a1
    1f9c:	670a           	beqs 1fa8 <free_dynamic_buffers+0x3c>
    1f9e:	0269 fffe fffe 	andiw #-2,%a1@(-2)
    1fa4:	42a8 0008      	clrl %a0@(8)
    1fa8:	2268 000c      	moveal %a0@(12),%a1
    1fac:	b2fc 0000      	cmpaw #0,%a1
    1fb0:	670a           	beqs 1fbc <free_dynamic_buffers+0x50>
    1fb2:	0269 fffe fffe 	andiw #-2,%a1@(-2)
    1fb8:	42a8 000c      	clrl %a0@(12)
    1fbc:	2268 0010      	moveal %a0@(16),%a1
    1fc0:	b2fc 0000      	cmpaw #0,%a1
    1fc4:	670a           	beqs 1fd0 <free_dynamic_buffers+0x64>
    1fc6:	0269 fffe fffe 	andiw #-2,%a1@(-2)
    1fcc:	42a8 0010      	clrl %a0@(16)
    1fd0:	2268 0028      	moveal %a0@(40),%a1
    1fd4:	b2fc 0000      	cmpaw #0,%a1
    1fd8:	670a           	beqs 1fe4 <free_dynamic_buffers+0x78>
    1fda:	0269 fffe fffe 	andiw #-2,%a1@(-2)
    1fe0:	42a8 0028      	clrl %a0@(40)
    1fe4:	2268 0030      	moveal %a0@(48),%a1
    1fe8:	b2fc 0000      	cmpaw #0,%a1
    1fec:	670a           	beqs 1ff8 <free_dynamic_buffers+0x8c>
    1fee:	0269 fffe fffe 	andiw #-2,%a1@(-2)
    1ff4:	42a8 0030      	clrl %a0@(48)
    1ff8:	2268 0034      	moveal %a0@(52),%a1
    1ffc:	b2fc 0000      	cmpaw #0,%a1
    2000:	670a           	beqs 200c <free_dynamic_buffers+0xa0>
    2002:	0269 fffe fffe 	andiw #-2,%a1@(-2)
    2008:	42a8 0034      	clrl %a0@(52)
    200c:	4268 0038      	clrw %a0@(56)
    2010:	4e75           	rts

00002012 <scan_fill_assets_usage>:
    2012:	48e7 3f30      	moveml %d2-%d7/%a2-%a3,%sp@-
    2016:	246f 0024      	moveal %sp@(36),%a2
    201a:	202f 002c      	movel %sp@(44),%d0
    201e:	206f 0030      	moveal %sp@(48),%a0
    2022:	162f 002b      	moveb %sp@(43),%d3
    2026:	1400           	moveb %d0,%d2
    2028:	2252           	moveal %a2@,%a1
    202a:	b2fc 0000      	cmpaw #0,%a1
    202e:	6700 0112      	beqw 2142 <scan_fill_assets_usage+0x130>
    2032:	4aa9 0004      	tstl %a1@(4)
    2036:	56c1           	sne %d1
    2038:	4401           	negb %d1
    203a:	226a 0008      	moveal %a2@(8),%a1
    203e:	b2fc 0000      	cmpaw #0,%a1
    2042:	6704           	beqs 2048 <scan_fill_assets_usage+0x36>
    2044:	2269 0004      	moveal %a1@(4),%a1
    2048:	266a 0004      	moveal %a2@(4),%a3
    204c:	b6fc 0000      	cmpaw #0,%a3
    2050:	6700 00ea      	beqw 213c <scan_fill_assets_usage+0x12a>
    2054:	4aab 0004      	tstl %a3@(4)
    2058:	56c4           	sne %d4
    205a:	4404           	negb %d4
    205c:	246a 000c      	moveal %a2@(12),%a2
    2060:	b4fc 0000      	cmpaw #0,%a2
    2064:	6700 0120      	beqw 2186 <scan_fill_assets_usage+0x174>
    2068:	4aaa 0004      	tstl %a2@(4)
    206c:	56c5           	sne %d5
    206e:	4405           	negb %d5
    2070:	4a03           	tstb %d3
    2072:	673a           	beqs 20ae <scan_fill_assets_usage+0x9c>
    2074:	b2fc 0000      	cmpaw #0,%a1
    2078:	6700 00da      	beqw 2154 <scan_fill_assets_usage+0x142>
    207c:	4a00           	tstb %d0
    207e:	56c2           	sne %d2
    2080:	4402           	negb %d2
    2082:	1c04           	moveb %d4,%d6
    2084:	1e01           	moveb %d1,%d7
    2086:	7601           	moveq #1,%d3
    2088:	7001           	moveq #1,%d0
    208a:	8310           	orb %d1,%a0@
    208c:	8128 0001      	orb %d0,%a0@(1)
    2090:	8928 0002      	orb %d4,%a0@(2)
    2094:	8b28 0003      	orb %d5,%a0@(3)
    2098:	8728 0004      	orb %d3,%a0@(4)
    209c:	8528 0005      	orb %d2,%a0@(5)
    20a0:	8f28 0006      	orb %d7,%a0@(6)
    20a4:	8d28 0007      	orb %d6,%a0@(7)
    20a8:	4cdf 0cfc      	moveml %sp@+,%d2-%d7/%a2-%a3
    20ac:	4e75           	rts
    20ae:	4a02           	tstb %d2
    20b0:	6630           	bnes 20e2 <scan_fill_assets_usage+0xd0>
    20b2:	b2fc 0000      	cmpaw #0,%a1
    20b6:	56c0           	sne %d0
    20b8:	4400           	negb %d0
    20ba:	4206           	clrb %d6
    20bc:	4207           	clrb %d7
    20be:	8310           	orb %d1,%a0@
    20c0:	8128 0001      	orb %d0,%a0@(1)
    20c4:	8928 0002      	orb %d4,%a0@(2)
    20c8:	8b28 0003      	orb %d5,%a0@(3)
    20cc:	8728 0004      	orb %d3,%a0@(4)
    20d0:	8528 0005      	orb %d2,%a0@(5)
    20d4:	8f28 0006      	orb %d7,%a0@(6)
    20d8:	8d28 0007      	orb %d6,%a0@(7)
    20dc:	4cdf 0cfc      	moveml %sp@+,%d2-%d7/%a2-%a3
    20e0:	4e75           	rts
    20e2:	4206           	clrb %d6
    20e4:	4207           	clrb %d7
    20e6:	b2fc 0000      	cmpaw #0,%a1
    20ea:	6728           	beqs 2114 <scan_fill_assets_usage+0x102>
    20ec:	7401           	moveq #1,%d2
    20ee:	7001           	moveq #1,%d0
    20f0:	8310           	orb %d1,%a0@
    20f2:	8128 0001      	orb %d0,%a0@(1)
    20f6:	8928 0002      	orb %d4,%a0@(2)
    20fa:	8b28 0003      	orb %d5,%a0@(3)
    20fe:	8728 0004      	orb %d3,%a0@(4)
    2102:	8528 0005      	orb %d2,%a0@(5)
    2106:	8f28 0006      	orb %d7,%a0@(6)
    210a:	8d28 0007      	orb %d6,%a0@(7)
    210e:	4cdf 0cfc      	moveml %sp@+,%d2-%d7/%a2-%a3
    2112:	4e75           	rts
    2114:	1401           	moveb %d1,%d2
    2116:	4200           	clrb %d0
    2118:	8310           	orb %d1,%a0@
    211a:	8128 0001      	orb %d0,%a0@(1)
    211e:	8928 0002      	orb %d4,%a0@(2)
    2122:	8b28 0003      	orb %d5,%a0@(3)
    2126:	8728 0004      	orb %d3,%a0@(4)
    212a:	8528 0005      	orb %d2,%a0@(5)
    212e:	8f28 0006      	orb %d7,%a0@(6)
    2132:	8d28 0007      	orb %d6,%a0@(7)
    2136:	4cdf 0cfc      	moveml %sp@+,%d2-%d7/%a2-%a3
    213a:	4e75           	rts
    213c:	4204           	clrb %d4
    213e:	6000 ff1c      	braw 205c <scan_fill_assets_usage+0x4a>
    2142:	4201           	clrb %d1
    2144:	226a 0008      	moveal %a2@(8),%a1
    2148:	b2fc 0000      	cmpaw #0,%a1
    214c:	6600 fef6      	bnew 2044 <scan_fill_assets_usage+0x32>
    2150:	6000 fef6      	braw 2048 <scan_fill_assets_usage+0x36>
    2154:	1c04           	moveb %d4,%d6
    2156:	1e01           	moveb %d1,%d7
    2158:	4a02           	tstb %d2
    215a:	6702           	beqs 215e <scan_fill_assets_usage+0x14c>
    215c:	1401           	moveb %d1,%d2
    215e:	1601           	moveb %d1,%d3
    2160:	4200           	clrb %d0
    2162:	8310           	orb %d1,%a0@
    2164:	8128 0001      	orb %d0,%a0@(1)
    2168:	8928 0002      	orb %d4,%a0@(2)
    216c:	8b28 0003      	orb %d5,%a0@(3)
    2170:	8728 0004      	orb %d3,%a0@(4)
    2174:	8528 0005      	orb %d2,%a0@(5)
    2178:	8f28 0006      	orb %d7,%a0@(6)
    217c:	8d28 0007      	orb %d6,%a0@(7)
    2180:	4cdf 0cfc      	moveml %sp@+,%d2-%d7/%a2-%a3
    2184:	4e75           	rts
    2186:	4205           	clrb %d5
    2188:	6000 fee6      	braw 2070 <scan_fill_assets_usage+0x5e>

0000218c <populate_layout_context_from_fill_assets>:
    218c:	48e7 3c3c      	moveml %d2-%d5/%a2-%a5,%sp@-
    2190:	226f 0024      	moveal %sp@(36),%a1
    2194:	202f 0028      	movel %sp@(40),%d0
    2198:	206f 002c      	moveal %sp@(44),%a0
    219c:	122f 0033      	moveb %sp@(51),%d1
    21a0:	162f 0037      	moveb %sp@(55),%d3
    21a4:	b0fc 0000      	cmpaw #0,%a0
    21a8:	6700 0198      	beqw 2342 <populate_layout_context_from_fill_assets+0x1b6>
    21ac:	2650           	moveal %a0@,%a3
    21ae:	b6fc 0000      	cmpaw #0,%a3
    21b2:	6704           	beqs 21b8 <populate_layout_context_from_fill_assets+0x2c>
    21b4:	266b 0004      	moveal %a3@(4),%a3
    21b8:	2468 0008      	moveal %a0@(8),%a2
    21bc:	b4fc 0000      	cmpaw #0,%a2
    21c0:	6704           	beqs 21c6 <populate_layout_context_from_fill_assets+0x3a>
    21c2:	246a 0004      	moveal %a2@(4),%a2
    21c6:	2868 0004      	moveal %a0@(4),%a4
    21ca:	b8fc 0000      	cmpaw #0,%a4
    21ce:	6704           	beqs 21d4 <populate_layout_context_from_fill_assets+0x48>
    21d0:	286c 0004      	moveal %a4@(4),%a4
    21d4:	2068 000c      	moveal %a0@(12),%a0
    21d8:	b0fc 0000      	cmpaw #0,%a0
    21dc:	6704           	beqs 21e2 <populate_layout_context_from_fill_assets+0x56>
    21de:	2068 0004      	moveal %a0@(4),%a0
    21e2:	4a01           	tstb %d1
    21e4:	6700 0146      	beqw 232c <populate_layout_context_from_fill_assets+0x1a0>
    21e8:	240c           	movel %a4,%d2
    21ea:	b4fc 0000      	cmpaw #0,%a2
    21ee:	6700 0186      	beqw 2376 <populate_layout_context_from_fill_assets+0x1ea>
    21f2:	4a03           	tstb %d3
    21f4:	6700 0172      	beqw 2368 <populate_layout_context_from_fill_assets+0x1dc>
    21f8:	260b           	movel %a3,%d3
    21fa:	2a0a           	movel %a2,%d5
    21fc:	280a           	movel %a2,%d4
    21fe:	2a51           	moveal %a1@,%a5
    2200:	bafc 0000      	cmpaw #0,%a5
    2204:	6714           	beqs 221a <populate_layout_context_from_fill_assets+0x8e>
    2206:	2a55           	moveal %a5@,%a5
    2208:	bafc 0000      	cmpaw #0,%a5
    220c:	670c           	beqs 221a <populate_layout_context_from_fill_assets+0x8e>
    220e:	7200           	moveq #0,%d1
    2210:	1200           	moveb %d0,%d1
    2212:	d281           	addl %d1,%d1
    2214:	d281           	addl %d1,%d1
    2216:	2b8b 1800      	movel %a3,%a5@(0,%d1:l)
    221a:	2669 0004      	moveal %a1@(4),%a3
    221e:	b6fc 0000      	cmpaw #0,%a3
    2222:	671c           	beqs 2240 <populate_layout_context_from_fill_assets+0xb4>
    2224:	2653           	moveal %a3@,%a3
    2226:	b6fc 0000      	cmpaw #0,%a3
    222a:	6714           	beqs 2240 <populate_layout_context_from_fill_assets+0xb4>
    222c:	b7fc e0ff 0b48 	cmpal #-520156344,%a3
    2232:	670c           	beqs 2240 <populate_layout_context_from_fill_assets+0xb4>
    2234:	7200           	moveq #0,%d1
    2236:	1200           	moveb %d0,%d1
    2238:	d281           	addl %d1,%d1
    223a:	d281           	addl %d1,%d1
    223c:	278a 1800      	movel %a2,%a3@(0,%d1:l)
    2240:	2469 0008      	moveal %a1@(8),%a2
    2244:	b4fc 0000      	cmpaw #0,%a2
    2248:	671c           	beqs 2266 <populate_layout_context_from_fill_assets+0xda>
    224a:	2452           	moveal %a2@,%a2
    224c:	b4fc 0000      	cmpaw #0,%a2
    2250:	6714           	beqs 2266 <populate_layout_context_from_fill_assets+0xda>
    2252:	b5fc e0ff 0b48 	cmpal #-520156344,%a2
    2258:	670c           	beqs 2266 <populate_layout_context_from_fill_assets+0xda>
    225a:	7200           	moveq #0,%d1
    225c:	1200           	moveb %d0,%d1
    225e:	d281           	addl %d1,%d1
    2260:	d281           	addl %d1,%d1
    2262:	258c 1800      	movel %a4,%a2@(0,%d1:l)
    2266:	2469 000c      	moveal %a1@(12),%a2
    226a:	b4fc 0000      	cmpaw #0,%a2
    226e:	671c           	beqs 228c <populate_layout_context_from_fill_assets+0x100>
    2270:	2452           	moveal %a2@,%a2
    2272:	b4fc 0000      	cmpaw #0,%a2
    2276:	6714           	beqs 228c <populate_layout_context_from_fill_assets+0x100>
    2278:	b5fc e0ff 0b48 	cmpal #-520156344,%a2
    227e:	670c           	beqs 228c <populate_layout_context_from_fill_assets+0x100>
    2280:	7200           	moveq #0,%d1
    2282:	1200           	moveb %d0,%d1
    2284:	d281           	addl %d1,%d1
    2286:	d281           	addl %d1,%d1
    2288:	2588 1800      	movel %a0,%a2@(0,%d1:l)
    228c:	2069 0010      	moveal %a1@(16),%a0
    2290:	b0fc 0000      	cmpaw #0,%a0
    2294:	671c           	beqs 22b2 <populate_layout_context_from_fill_assets+0x126>
    2296:	2050           	moveal %a0@,%a0
    2298:	b0fc 0000      	cmpaw #0,%a0
    229c:	6714           	beqs 22b2 <populate_layout_context_from_fill_assets+0x126>
    229e:	b1fc e0ff 0b48 	cmpal #-520156344,%a0
    22a4:	670c           	beqs 22b2 <populate_layout_context_from_fill_assets+0x126>
    22a6:	7200           	moveq #0,%d1
    22a8:	1200           	moveb %d0,%d1
    22aa:	d281           	addl %d1,%d1
    22ac:	d281           	addl %d1,%d1
    22ae:	2185 1800      	movel %d5,%a0@(0,%d1:l)
    22b2:	2069 0014      	moveal %a1@(20),%a0
    22b6:	b0fc 0000      	cmpaw #0,%a0
    22ba:	671c           	beqs 22d8 <populate_layout_context_from_fill_assets+0x14c>
    22bc:	2050           	moveal %a0@,%a0
    22be:	b0fc 0000      	cmpaw #0,%a0
    22c2:	6714           	beqs 22d8 <populate_layout_context_from_fill_assets+0x14c>
    22c4:	b1fc e0ff 0b48 	cmpal #-520156344,%a0
    22ca:	670c           	beqs 22d8 <populate_layout_context_from_fill_assets+0x14c>
    22cc:	7200           	moveq #0,%d1
    22ce:	1200           	moveb %d0,%d1
    22d0:	d281           	addl %d1,%d1
    22d2:	d281           	addl %d1,%d1
    22d4:	2184 1800      	movel %d4,%a0@(0,%d1:l)
    22d8:	2069 0018      	moveal %a1@(24),%a0
    22dc:	b0fc 0000      	cmpaw #0,%a0
    22e0:	671c           	beqs 22fe <populate_layout_context_from_fill_assets+0x172>
    22e2:	2050           	moveal %a0@,%a0
    22e4:	b0fc 0000      	cmpaw #0,%a0
    22e8:	6714           	beqs 22fe <populate_layout_context_from_fill_assets+0x172>
    22ea:	b1fc e0ff 0b48 	cmpal #-520156344,%a0
    22f0:	670c           	beqs 22fe <populate_layout_context_from_fill_assets+0x172>
    22f2:	7200           	moveq #0,%d1
    22f4:	1200           	moveb %d0,%d1
    22f6:	d281           	addl %d1,%d1
    22f8:	d281           	addl %d1,%d1
    22fa:	2183 1800      	movel %d3,%a0@(0,%d1:l)
    22fe:	2069 001c      	moveal %a1@(28),%a0
    2302:	b0fc 0000      	cmpaw #0,%a0
    2306:	671e           	beqs 2326 <populate_layout_context_from_fill_assets+0x19a>
    2308:	2050           	moveal %a0@,%a0
    230a:	b0fc 0000      	cmpaw #0,%a0
    230e:	6716           	beqs 2326 <populate_layout_context_from_fill_assets+0x19a>
    2310:	b1fc e0ff 0b48 	cmpal #-520156344,%a0
    2316:	670e           	beqs 2326 <populate_layout_context_from_fill_assets+0x19a>
    2318:	0280 0000 00ff 	andil #255,%d0
    231e:	d080           	addl %d0,%d0
    2320:	d080           	addl %d0,%d0
    2322:	2182 0800      	movel %d2,%a0@(0,%d0:l)
    2326:	4cdf 3c3c      	moveml %sp@+,%d2-%d5/%a2-%a5
    232a:	4e75           	rts
    232c:	4a03           	tstb %d3
    232e:	672c           	beqs 235c <populate_layout_context_from_fill_assets+0x1d0>
    2330:	b4fc 0000      	cmpaw #0,%a2
    2334:	6772           	beqs 23a8 <populate_layout_context_from_fill_assets+0x21c>
    2336:	280a           	movel %a2,%d4
    2338:	7600           	moveq #0,%d3
    233a:	7a00           	moveq #0,%d5
    233c:	7400           	moveq #0,%d2
    233e:	6000 febe      	braw 21fe <populate_layout_context_from_fill_assets+0x72>
    2342:	4a01           	tstb %d1
    2344:	662c           	bnes 2372 <populate_layout_context_from_fill_assets+0x1e6>
    2346:	4a03           	tstb %d3
    2348:	663e           	bnes 2388 <populate_layout_context_from_fill_assets+0x1fc>
    234a:	7600           	moveq #0,%d3
    234c:	7a00           	moveq #0,%d5
    234e:	99cc           	subal %a4,%a4
    2350:	95ca           	subal %a2,%a2
    2352:	97cb           	subal %a3,%a3
    2354:	7800           	moveq #0,%d4
    2356:	7400           	moveq #0,%d2
    2358:	6000 fea4      	braw 21fe <populate_layout_context_from_fill_assets+0x72>
    235c:	7600           	moveq #0,%d3
    235e:	7a00           	moveq #0,%d5
    2360:	7800           	moveq #0,%d4
    2362:	7400           	moveq #0,%d2
    2364:	6000 fe98      	braw 21fe <populate_layout_context_from_fill_assets+0x72>
    2368:	260b           	movel %a3,%d3
    236a:	2a0a           	movel %a2,%d5
    236c:	7800           	moveq #0,%d4
    236e:	6000 fe8e      	braw 21fe <populate_layout_context_from_fill_assets+0x72>
    2372:	7400           	moveq #0,%d2
    2374:	97cb           	subal %a3,%a3
    2376:	4a03           	tstb %d3
    2378:	6620           	bnes 239a <populate_layout_context_from_fill_assets+0x20e>
    237a:	260b           	movel %a3,%d3
    237c:	2a0b           	movel %a3,%d5
    237e:	2842           	moveal %d2,%a4
    2380:	95ca           	subal %a2,%a2
    2382:	7800           	moveq #0,%d4
    2384:	6000 fe78      	braw 21fe <populate_layout_context_from_fill_assets+0x72>
    2388:	99cc           	subal %a4,%a4
    238a:	7800           	moveq #0,%d4
    238c:	2644           	moveal %d4,%a3
    238e:	7600           	moveq #0,%d3
    2390:	7a00           	moveq #0,%d5
    2392:	95ca           	subal %a2,%a2
    2394:	7400           	moveq #0,%d2
    2396:	6000 fe66      	braw 21fe <populate_layout_context_from_fill_assets+0x72>
    239a:	260b           	movel %a3,%d3
    239c:	2a0b           	movel %a3,%d5
    239e:	2842           	moveal %d2,%a4
    23a0:	280b           	movel %a3,%d4
    23a2:	95ca           	subal %a2,%a2
    23a4:	6000 fe58      	braw 21fe <populate_layout_context_from_fill_assets+0x72>
    23a8:	280b           	movel %a3,%d4
    23aa:	2644           	moveal %d4,%a3
    23ac:	7600           	moveq #0,%d3
    23ae:	7a00           	moveq #0,%d5
    23b0:	95ca           	subal %a2,%a2
    23b2:	7400           	moveq #0,%d2
    23b4:	6000 fe48      	braw 21fe <populate_layout_context_from_fill_assets+0x72>

000023b8 <externalIntCB>:
    23b8:	2f03           	movel %d3,%sp@-
    23ba:	2f02           	movel %d2,%sp@-
    23bc:	3239 00c0 0008 	movew c00008 <_stext+0xbbdf50>,%d1
    23c2:	4a39 e0ff 0b7c 	tstb e0ff0b7c <extSet>
    23c8:	6600 0092      	bnew 245c <externalIntCB+0xa4>
    23cc:	3039 e0ff 0baa 	movew e0ff0baa <gport>,%d0
    23d2:	0c40 ffff      	cmpiw #-1,%d0
    23d6:	6700 0084      	beqw 245c <externalIntCB+0xa4>
    23da:	207c 00a1 1100 	moveal #10555648,%a0
    23e0:	3610           	movew %a0@,%d3
    23e2:	1439 e0ff 0b7b 	moveb e0ff0b7b <gun>,%d2
    23e8:	0803 0008      	btst #8,%d3
    23ec:	6700 00bc      	beqw 24aa <externalIntCB+0xf2>
    23f0:	30bc 0100      	movew #256,%a0@
    23f4:	33fc 0100 00a1 	movew #256,a11200 <_stext+0x9cf148>
    23fa:	1200 
    23fc:	3039 00a1 1100 	movew a11100 <_stext+0x9cf048>,%d0
    2402:	0800 0008      	btst #8,%d0
    2406:	66f4           	bnes 23fc <externalIntCB+0x44>
    2408:	41f9 e0ff 0ba8 	lea e0ff0ba8 <portType>,%a0
    240e:	7000           	moveq #0,%d0
    2410:	3039 e0ff 0baa 	movew e0ff0baa <gport>,%d0
    2416:	0c30 0001 0800 	cmpib #1,%a0@(0,%d0:l)
    241c:	6744           	beqs 2462 <externalIntCB+0xaa>
    241e:	33fc 0000 00a1 	movew #0,a11100 <_stext+0x9cf048>
    2424:	1100 
    2426:	3039 e0ff 0baa 	movew e0ff0baa <gport>,%d0
    242c:	3601           	movew %d1,%d3
    242e:	0243 00ff      	andiw #255,%d3
    2432:	e049           	lsrw #8,%d1
    2434:	4a02           	tstb %d2
    2436:	664c           	bnes 2484 <externalIntCB+0xcc>
    2438:	0280 0000 ffff 	andil #65535,%d0
    243e:	d080           	addl %d0,%d0
    2440:	41f9 e0ff 0b8e 	lea e0ff0b8e <joyAxisX>,%a0
    2446:	3183 0800      	movew %d3,%a0@(0,%d0:l)
    244a:	41f9 e0ff 0b7e 	lea e0ff0b7e <joyAxisY>,%a0
    2450:	3181 0800      	movew %d1,%a0@(0,%d0:l)
    2454:	13fc 0001 e0ff 	moveb #1,e0ff0b7c <extSet>
    245a:	0b7c 
    245c:	241f           	movel %sp@+,%d2
    245e:	261f           	movel %sp@+,%d3
    2460:	4e75           	rts
    2462:	d080           	addl %d0,%d0
    2464:	2040           	moveal %d0,%a0
    2466:	d1fc 00a1 0003 	addal #10551299,%a0
    246c:	1002           	moveb %d2,%d0
    246e:	0000 0010      	orib #16,%d0
    2472:	1080           	moveb %d0,%a0@
    2474:	33fc 0000 00a1 	movew #0,a11100 <_stext+0x9cf048>
    247a:	1100 
    247c:	3039 e0ff 0baa 	movew e0ff0baa <gport>,%d0
    2482:	60a8           	bras 242c <externalIntCB+0x74>
    2484:	4a40           	tstw %d0
    2486:	674c           	beqs 24d4 <externalIntCB+0x11c>
    2488:	7005           	moveq #5,%d0
    248a:	d080           	addl %d0,%d0
    248c:	41f9 e0ff 0b8e 	lea e0ff0b8e <joyAxisX>,%a0
    2492:	3183 0800      	movew %d3,%a0@(0,%d0:l)
    2496:	41f9 e0ff 0b7e 	lea e0ff0b7e <joyAxisY>,%a0
    249c:	3181 0800      	movew %d1,%a0@(0,%d0:l)
    24a0:	13fc 0001 e0ff 	moveb #1,e0ff0b7c <extSet>
    24a6:	0b7c 
    24a8:	60b2           	bras 245c <externalIntCB+0xa4>
    24aa:	41f9 e0ff 0ba8 	lea e0ff0ba8 <portType>,%a0
    24b0:	7600           	moveq #0,%d3
    24b2:	3600           	movew %d0,%d3
    24b4:	0c30 0001 3800 	cmpib #1,%a0@(0,%d3:l)
    24ba:	6600 ff70      	bnew 242c <externalIntCB+0x74>
    24be:	d683           	addl %d3,%d3
    24c0:	2043           	moveal %d3,%a0
    24c2:	d1fc 00a1 0003 	addal #10551299,%a0
    24c8:	1602           	moveb %d2,%d3
    24ca:	0003 0010      	orib #16,%d3
    24ce:	1083           	moveb %d3,%a0@
    24d0:	6000 ff5a      	braw 242c <externalIntCB+0x74>
    24d4:	7002           	moveq #2,%d0
    24d6:	d080           	addl %d0,%d0
    24d8:	41f9 e0ff 0b8e 	lea e0ff0b8e <joyAxisX>,%a0
    24de:	3183 0800      	movew %d3,%a0@(0,%d0:l)
    24e2:	41f9 e0ff 0b7e 	lea e0ff0b7e <joyAxisY>,%a0
    24e8:	3181 0800      	movew %d1,%a0@(0,%d0:l)
    24ec:	13fc 0001 e0ff 	moveb #1,e0ff0b7c <extSet>
    24f2:	0b7c 
    24f4:	6000 ff66      	braw 245c <externalIntCB+0xa4>

000024f8 <read6Btn>:
    24f8:	48e7 3800      	moveml %d2-%d4,%sp@-
    24fc:	7000           	moveq #0,%d0
    24fe:	302f 0012      	movew %sp@(18),%d0
    2502:	d080           	addl %d0,%d0
    2504:	2040           	moveal %d0,%a0
    2506:	d1fc 00a1 0003 	addal #10551299,%a0
    250c:	227c 00a1 1100 	moveal #10555648,%a1
    2512:	3011           	movew %a1@,%d0
    2514:	0800 0008      	btst #8,%d0
    2518:	6700 00ca      	beqw 25e4 <read6Btn+0xec>
    251c:	32bc 0100      	movew #256,%a1@
    2520:	33fc 0100 00a1 	movew #256,a11200 <_stext+0x9cf148>
    2526:	1200 
    2528:	3039 00a1 1100 	movew a11100 <_stext+0x9cf048>,%d0
    252e:	0800 0008      	btst #8,%d0
    2532:	66f4           	bnes 2528 <read6Btn+0x30>
    2534:	4203           	clrb %d3
    2536:	10bc 0000      	moveb #0,%a0@
    253a:	4e71           	nop
    253c:	4e71           	nop
    253e:	1010           	moveb %a0@,%d0
    2540:	10bc 0040      	moveb #64,%a0@
    2544:	e148           	lslw #8,%d0
    2546:	1410           	moveb %a0@,%d2
    2548:	0242 00ff      	andiw #255,%d2
    254c:	8440           	orw %d0,%d2
    254e:	10bc 0000      	moveb #0,%a0@
    2552:	4e71           	nop
    2554:	4e71           	nop
    2556:	1010           	moveb %a0@,%d0
    2558:	10bc 0040      	moveb #64,%a0@
    255c:	1010           	moveb %a0@,%d0
    255e:	10bc 0000      	moveb #0,%a0@
    2562:	4e71           	nop
    2564:	4e71           	nop
    2566:	1010           	moveb %a0@,%d0
    2568:	10bc 0040      	moveb #64,%a0@
    256c:	e148           	lslw #8,%d0
    256e:	1210           	moveb %a0@,%d1
    2570:	0241 00ff      	andiw #255,%d1
    2574:	8240           	orw %d0,%d1
    2576:	10bc 0000      	moveb #0,%a0@
    257a:	4e71           	nop
    257c:	4e71           	nop
    257e:	1810           	moveb %a0@,%d4
    2580:	10bc 0040      	moveb #64,%a0@
    2584:	1010           	moveb %a0@,%d0
    2586:	4a03           	tstb %d3
    2588:	672c           	beqs 25b6 <read6Btn+0xbe>
    258a:	303c 0f00      	movew #3840,%d0
    258e:	3601           	movew %d1,%d3
    2590:	c640           	andw %d0,%d3
    2592:	6608           	bnes 259c <read6Btn+0xa4>
    2594:	e14c           	lslw #8,%d4
    2596:	0244 0c00      	andiw #3072,%d4
    259a:	6624           	bnes 25c0 <read6Btn+0xc8>
    259c:	3202           	movew %d2,%d1
    259e:	ec49           	lsrw #6,%d1
    25a0:	0241 00c0      	andiw #192,%d1
    25a4:	0242 003f      	andiw #63,%d2
    25a8:	8242           	orw %d2,%d1
    25aa:	8041           	orw %d1,%d0
    25ac:	0a40 0fff      	eoriw #4095,%d0
    25b0:	4cdf 001c      	moveml %sp@+,%d2-%d4
    25b4:	4e75           	rts
    25b6:	33fc 0000 00a1 	movew #0,a11100 <_stext+0x9cf048>
    25bc:	1100 
    25be:	60ca           	bras 258a <read6Btn+0x92>
    25c0:	e149           	lslw #8,%d1
    25c2:	c240           	andw %d0,%d1
    25c4:	3001           	movew %d1,%d0
    25c6:	0040 1000      	oriw #4096,%d0
    25ca:	3202           	movew %d2,%d1
    25cc:	ec49           	lsrw #6,%d1
    25ce:	0241 00c0      	andiw #192,%d1
    25d2:	0242 003f      	andiw #63,%d2
    25d6:	8242           	orw %d2,%d1
    25d8:	8041           	orw %d1,%d0
    25da:	0a40 0fff      	eoriw #4095,%d0
    25de:	4cdf 001c      	moveml %sp@+,%d2-%d4
    25e2:	4e75           	rts
    25e4:	7601           	moveq #1,%d3
    25e6:	10bc 0000      	moveb #0,%a0@
    25ea:	4e71           	nop
    25ec:	4e71           	nop
    25ee:	1010           	moveb %a0@,%d0
    25f0:	10bc 0040      	moveb #64,%a0@
    25f4:	e148           	lslw #8,%d0
    25f6:	1410           	moveb %a0@,%d2
    25f8:	0242 00ff      	andiw #255,%d2
    25fc:	8440           	orw %d0,%d2
    25fe:	10bc 0000      	moveb #0,%a0@
    2602:	4e71           	nop
    2604:	4e71           	nop
    2606:	1010           	moveb %a0@,%d0
    2608:	10bc 0040      	moveb #64,%a0@
    260c:	1010           	moveb %a0@,%d0
    260e:	10bc 0000      	moveb #0,%a0@
    2612:	4e71           	nop
    2614:	4e71           	nop
    2616:	1010           	moveb %a0@,%d0
    2618:	10bc 0040      	moveb #64,%a0@
    261c:	e148           	lslw #8,%d0
    261e:	1210           	moveb %a0@,%d1
    2620:	0241 00ff      	andiw #255,%d1
    2624:	8240           	orw %d0,%d1
    2626:	10bc 0000      	moveb #0,%a0@
    262a:	4e71           	nop
    262c:	4e71           	nop
    262e:	1810           	moveb %a0@,%d4
    2630:	10bc 0040      	moveb #64,%a0@
    2634:	1010           	moveb %a0@,%d0
    2636:	4a03           	tstb %d3
    2638:	6600 ff50      	bnew 258a <read6Btn+0x92>
    263c:	6000 ff78      	braw 25b6 <read6Btn+0xbe>

00002640 <readMouse>:
    2640:	4fef fff4      	lea %sp@(-12),%sp
    2644:	48e7 3f3c      	moveml %d2-%d7/%a2-%a5,%sp@-
    2648:	7000           	moveq #0,%d0
    264a:	302f 003a      	movew %sp@(58),%d0
    264e:	2440           	moveal %d0,%a2
    2650:	220a           	movel %a2,%d1
    2652:	d28a           	addl %a2,%d1
    2654:	2041           	moveal %d1,%a0
    2656:	d1fc 00a1 0003 	addal #10551299,%a0
    265c:	50f9 e0ff 0b79 	st e0ff0b79 <retry>
    2662:	13fc 0020 e0ff 	moveb #32,e0ff0b7a <phase.lto_priv.1>
    2668:	0b7a 
    266a:	227c 00a1 1100 	moveal #10555648,%a1
    2670:	3011           	movew %a1@,%d0
    2672:	0800 0008      	btst #8,%d0
    2676:	6700 01f2      	beqw 286a <readMouse+0x22a>
    267a:	32bc 0100      	movew #256,%a1@
    267e:	33fc 0100 00a1 	movew #256,a11200 <_stext+0x9cf148>
    2684:	1200 
    2686:	3039 00a1 1100 	movew a11100 <_stext+0x9cf048>,%d0
    268c:	0800 0008      	btst #8,%d0
    2690:	66f4           	bnes 2686 <readMouse+0x46>
    2692:	97cb           	subal %a3,%a3
    2694:	2241           	moveal %d1,%a1
    2696:	d3fc 00a1 0009 	addal #10551305,%a1
    269c:	12bc 0060      	moveb #96,%a1@
    26a0:	10bc 0060      	moveb #96,%a0@
    26a4:	4e71           	nop
    26a6:	4e71           	nop
    26a8:	1010           	moveb %a0@,%d0
    26aa:	0200 000f      	andib #15,%d0
    26ae:	6708           	beqs 26b8 <readMouse+0x78>
    26b0:	0c00 0003      	cmpib #3,%d0
    26b4:	6600 0090      	bnew 2746 <readMouse+0x106>
    26b8:	10bc 0060      	moveb #96,%a0@
    26bc:	1839 e0ff 0b79 	moveb e0ff0b79 <retry>,%d4
    26c2:	6700 02c2      	beqw 2986 <readMouse+0x346>
    26c6:	1004           	moveb %d4,%d0
    26c8:	4202           	clrb %d2
    26ca:	7601           	moveq #1,%d3
    26cc:	1210           	moveb %a0@,%d1
    26ce:	0801 0004      	btst #4,%d1
    26d2:	6614           	bnes 26e8 <readMouse+0xa8>
    26d4:	5300           	subqb #1,%d0
    26d6:	1403           	moveb %d3,%d2
    26d8:	4a00           	tstb %d0
    26da:	6700 0178      	beqw 2854 <readMouse+0x214>
    26de:	1c00           	moveb %d0,%d6
    26e0:	1210           	moveb %a0@,%d1
    26e2:	0801 0004      	btst #4,%d1
    26e6:	67ec           	beqs 26d4 <readMouse+0x94>
    26e8:	4a02           	tstb %d2
    26ea:	6700 0278      	beqw 2964 <readMouse+0x324>
    26ee:	13c6 e0ff 0b79 	moveb %d6,e0ff0b79 <retry>
    26f4:	0201 000f      	andib #15,%d1
    26f8:	1f41 002a      	moveb %d1,%sp@(42)
    26fc:	1e39 e0ff 0b7a 	moveb e0ff0b7a <phase.lto_priv.1>,%d7
    2702:	43ef 002b      	lea %sp@(43),%a1
    2706:	4bef 002e      	lea %sp@(46),%a5
    270a:	1006           	moveb %d6,%d0
    270c:	4204           	clrb %d4
    270e:	7a01           	moveq #1,%d5
    2710:	2849           	moveal %a1,%a4
    2712:	1087           	moveb %d7,%a0@
    2714:	1607           	moveb %d7,%d3
    2716:	e20b           	lsrb #1,%d3
    2718:	1210           	moveb %a0@,%d1
    271a:	1403           	moveb %d3,%d2
    271c:	b302           	eorb %d1,%d2
    271e:	0802 0004      	btst #4,%d2
    2722:	676a           	beqs 278e <readMouse+0x14e>
    2724:	5300           	subqb #1,%d0
    2726:	1805           	moveb %d5,%d4
    2728:	4a00           	tstb %d0
    272a:	66ec           	bnes 2718 <readMouse+0xd8>
    272c:	4239 e0ff 0b79 	clrb e0ff0b79 <retry>
    2732:	0201 000f      	andib #15,%d1
    2736:	1881           	moveb %d1,%a4@
    2738:	0a07 0020      	eorib #32,%d7
    273c:	13c7 e0ff 0b7a 	moveb %d7,e0ff0b7a <phase.lto_priv.1>
    2742:	10bc 0060      	moveb #96,%a0@
    2746:	300b           	movew %a3,%d0
    2748:	4a00           	tstb %d0
    274a:	6700 00ec      	beqw 2838 <readMouse+0x1f8>
    274e:	303c 2000      	movew #8192,%d0
    2752:	227c 00a1 1100 	moveal #10555648,%a1
    2758:	3211           	movew %a1@,%d1
    275a:	0801 0008      	btst #8,%d1
    275e:	6700 0112      	beqw 2872 <readMouse+0x232>
    2762:	32bc 0100      	movew #256,%a1@
    2766:	33fc 0100 00a1 	movew #256,a11200 <_stext+0x9cf148>
    276c:	1200 
    276e:	227c 00a1 1100 	moveal #10555648,%a1
    2774:	3211           	movew %a1@,%d1
    2776:	0801 0008      	btst #8,%d1
    277a:	66f2           	bnes 276e <readMouse+0x12e>
    277c:	10bc 0060      	moveb #96,%a0@
    2780:	32bc 0000      	movew #0,%a1@
    2784:	4cdf 3cfc      	moveml %sp@+,%d2-%d7/%a2-%a5
    2788:	4fef 000c      	lea %sp@(12),%sp
    278c:	4e75           	rts
    278e:	0201 000f      	andib #15,%d1
    2792:	1881           	moveb %d1,%a4@
    2794:	5289           	addql #1,%a1
    2796:	0a07 0020      	eorib #32,%d7
    279a:	b3cd           	cmpal %a5,%a1
    279c:	6600 ff72      	bnew 2710 <readMouse+0xd0>
    27a0:	13c7 e0ff 0b7a 	moveb %d7,e0ff0b7a <phase.lto_priv.1>
    27a6:	4a04           	tstb %d4
    27a8:	6708           	beqs 27b2 <readMouse+0x172>
    27aa:	13c0 e0ff 0b79 	moveb %d0,e0ff0b79 <retry>
    27b0:	1c00           	moveb %d0,%d6
    27b2:	300b           	movew %a3,%d0
    27b4:	4a00           	tstb %d0
    27b6:	6700 0090      	beqw 2848 <readMouse+0x208>
    27ba:	1e2f 002a      	moveb %sp@(42),%d7
    27be:	668e           	bnes 274e <readMouse+0x10e>
    27c0:	0c2f 000b 002b 	cmpib #11,%sp@(43)
    27c6:	6686           	bnes 274e <readMouse+0x10e>
    27c8:	227c 00a1 1100 	moveal #10555648,%a1
    27ce:	3011           	movew %a1@,%d0
    27d0:	0800 0008      	btst #8,%d0
    27d4:	6700 01e8      	beqw 29be <readMouse+0x37e>
    27d8:	32bc 0100      	movew #256,%a1@
    27dc:	33fc 0100 00a1 	movew #256,a11200 <_stext+0x9cf148>
    27e2:	1200 
    27e4:	3039 00a1 1100 	movew a11100 <_stext+0x9cf048>,%d0
    27ea:	0800 0008      	btst #8,%d0
    27ee:	66f4           	bnes 27e4 <readMouse+0x1a4>
    27f0:	1a39 e0ff 0b7a 	moveb e0ff0b7a <phase.lto_priv.1>,%d5
    27f6:	47ef 002e      	lea %sp@(46),%a3
    27fa:	93c9           	subal %a1,%a1
    27fc:	4203           	clrb %d3
    27fe:	7801           	moveq #1,%d4
    2800:	1085           	moveb %d5,%a0@
    2802:	1405           	moveb %d5,%d2
    2804:	e20a           	lsrb #1,%d2
    2806:	1010           	moveb %a0@,%d0
    2808:	1202           	moveb %d2,%d1
    280a:	b101           	eorb %d0,%d1
    280c:	0801 0004      	btst #4,%d1
    2810:	676e           	beqs 2880 <readMouse+0x240>
    2812:	5306           	subqb #1,%d6
    2814:	1604           	moveb %d4,%d3
    2816:	4a06           	tstb %d6
    2818:	66ec           	bnes 2806 <readMouse+0x1c6>
    281a:	4239 e0ff 0b79 	clrb e0ff0b79 <retry>
    2820:	0200 000f      	andib #15,%d0
    2824:	1f80 982e      	moveb %d0,%sp@(2e,%a1:l)
    2828:	0a05 0020      	eorib #32,%d5
    282c:	13c5 e0ff 0b7a 	moveb %d5,e0ff0b7a <phase.lto_priv.1>
    2832:	4a07           	tstb %d7
    2834:	6600 ff18      	bnew 274e <readMouse+0x10e>
    2838:	33fc 0000 00a1 	movew #0,a11100 <_stext+0x9cf048>
    283e:	1100 
    2840:	303c 2000      	movew #8192,%d0
    2844:	6000 ff0c      	braw 2752 <readMouse+0x112>
    2848:	33fc 0000 00a1 	movew #0,a11100 <_stext+0x9cf048>
    284e:	1100 
    2850:	6000 ff68      	braw 27ba <readMouse+0x17a>
    2854:	4239 e0ff 0b79 	clrb e0ff0b79 <retry>
    285a:	0201 000f      	andib #15,%d1
    285e:	1f41 002a      	moveb %d1,%sp@(42)
    2862:	10bc 0060      	moveb #96,%a0@
    2866:	6000 fede      	braw 2746 <readMouse+0x106>
    286a:	367c 0001      	moveaw #1,%a3
    286e:	6000 fe24      	braw 2694 <readMouse+0x54>
    2872:	10bc 0060      	moveb #96,%a0@
    2876:	4cdf 3cfc      	moveml %sp@+,%d2-%d7/%a2-%a5
    287a:	4fef 000c      	lea %sp@(12),%sp
    287e:	4e75           	rts
    2880:	0200 000f      	andib #15,%d0
    2884:	16c0           	moveb %d0,%a3@+
    2886:	0a05 0020      	eorib #32,%d5
    288a:	5289           	addql #1,%a1
    288c:	7006           	moveq #6,%d0
    288e:	b089           	cmpl %a1,%d0
    2890:	6600 ff6e      	bnew 2800 <readMouse+0x1c0>
    2894:	13c5 e0ff 0b7a 	moveb %d5,e0ff0b7a <phase.lto_priv.1>
    289a:	4a03           	tstb %d3
    289c:	6706           	beqs 28a4 <readMouse+0x264>
    289e:	13c6 e0ff 0b79 	moveb %d6,e0ff0b79 <retry>
    28a4:	4a07           	tstb %d7
    28a6:	6700 00fa      	beqw 29a2 <readMouse+0x362>
    28aa:	102f 002e      	moveb %sp@(46),%d0
    28ae:	1200           	moveb %d0,%d1
    28b0:	0201 0001      	andib #1,%d1
    28b4:	0800 0002      	btst #2,%d0
    28b8:	6600 00d8      	bnew 2992 <readMouse+0x352>
    28bc:	4242           	clrw %d2
    28be:	142f 0030      	moveb %sp@(48),%d2
    28c2:	e94a           	lslw #4,%d2
    28c4:	4243           	clrw %d3
    28c6:	162f 0031      	moveb %sp@(49),%d3
    28ca:	8443           	orw %d3,%d2
    28cc:	4a01           	tstb %d1
    28ce:	6700 0154      	beqw 2a24 <readMouse+0x3e4>
    28d2:	4a42           	tstw %d2
    28d4:	6600 014a      	bnew 2a20 <readMouse+0x3e0>
    28d8:	74ff           	moveq #-1,%d2
    28da:	327c ffff      	moveaw #-1,%a1
    28de:	1600           	moveb %d0,%d3
    28e0:	0203 0002      	andib #2,%d3
    28e4:	0800 0003      	btst #3,%d0
    28e8:	6700 0106      	beqw 29f0 <readMouse+0x3b0>
    28ec:	4a03           	tstb %d3
    28ee:	6600 0144      	bnew 2a34 <readMouse+0x3f4>
    28f2:	323c 0100      	movew #256,%d1
    28f6:	3001           	movew %d1,%d0
    28f8:	47f9 e0ff 0b8e 	lea e0ff0b8e <joyAxisX>,%a3
    28fe:	d5ca           	addal %a2,%a2
    2900:	3632 b800      	movew %a2@(0,%a3:l),%d3
    2904:	d2c3           	addaw %d3,%a1
    2906:	3589 b800      	movew %a1,%a2@(0,%a3:l)
    290a:	47f9 e0ff 0b7e 	lea e0ff0b7e <joyAxisY>,%a3
    2910:	3272 b800      	moveaw %a2@(0,%a3:l),%a1
    2914:	92c0           	subaw %d0,%a1
    2916:	3589 b800      	movew %a1,%a2@(0,%a3:l)
    291a:	102f 002f      	moveb %sp@(47),%d0
    291e:	0800 0003      	btst #3,%d0
    2922:	6600 00c0      	bnew 29e4 <readMouse+0x3a4>
    2926:	363c 2010      	movew #8208,%d3
    292a:	327c 2000      	moveaw #8192,%a1
    292e:	0800 0002      	btst #2,%d0
    2932:	6602           	bnes 2936 <readMouse+0x2f6>
    2934:	3609           	movew %a1,%d3
    2936:	0800 0001      	btst #1,%d0
    293a:	6704           	beqs 2940 <readMouse+0x300>
    293c:	0043 0020      	oriw #32,%d3
    2940:	ed48           	lslw #6,%d0
    2942:	0240 0040      	andiw #64,%d0
    2946:	8043           	orw %d3,%d0
    2948:	0c42 fffe      	cmpiw #-2,%d2
    294c:	6c00 0086      	bgew 29d4 <readMouse+0x394>
    2950:	0040 0004      	oriw #4,%d0
    2954:	0c41 fffe      	cmpiw #-2,%d1
    2958:	6c00 00b6      	bgew 2a10 <readMouse+0x3d0>
    295c:	0040 0002      	oriw #2,%d0
    2960:	6000 fdf0      	braw 2752 <readMouse+0x112>
    2964:	1c04           	moveb %d4,%d6
    2966:	0201 000f      	andib #15,%d1
    296a:	1f41 002a      	moveb %d1,%sp@(42)
    296e:	1e39 e0ff 0b7a 	moveb e0ff0b7a <phase.lto_priv.1>,%d7
    2974:	43ef 002b      	lea %sp@(43),%a1
    2978:	4bef 002e      	lea %sp@(46),%a5
    297c:	1006           	moveb %d6,%d0
    297e:	4204           	clrb %d4
    2980:	7a01           	moveq #1,%d5
    2982:	6000 fd8c      	braw 2710 <readMouse+0xd0>
    2986:	422f 002a      	clrb %sp@(42)
    298a:	10bc 0060      	moveb #96,%a0@
    298e:	6000 fdb6      	braw 2746 <readMouse+0x106>
    2992:	4a01           	tstb %d1
    2994:	6600 00a8      	bnew 2a3e <readMouse+0x3fe>
    2998:	343c 0100      	movew #256,%d2
    299c:	3242           	moveaw %d2,%a1
    299e:	6000 ff3e      	braw 28de <readMouse+0x29e>
    29a2:	33fc 0000 00a1 	movew #0,a11100 <_stext+0x9cf048>
    29a8:	1100 
    29aa:	102f 002e      	moveb %sp@(46),%d0
    29ae:	1200           	moveb %d0,%d1
    29b0:	0201 0001      	andib #1,%d1
    29b4:	0800 0002      	btst #2,%d0
    29b8:	6700 ff02      	beqw 28bc <readMouse+0x27c>
    29bc:	60d4           	bras 2992 <readMouse+0x352>
    29be:	7e01           	moveq #1,%d7
    29c0:	1a39 e0ff 0b7a 	moveb e0ff0b7a <phase.lto_priv.1>,%d5
    29c6:	47ef 002e      	lea %sp@(46),%a3
    29ca:	93c9           	subal %a1,%a1
    29cc:	4203           	clrb %d3
    29ce:	7801           	moveq #1,%d4
    29d0:	6000 fe2e      	braw 2800 <readMouse+0x1c0>
    29d4:	0c42 0002      	cmpiw #2,%d2
    29d8:	6f00 ff7a      	blew 2954 <readMouse+0x314>
    29dc:	0040 0008      	oriw #8,%d0
    29e0:	6000 ff72      	braw 2954 <readMouse+0x314>
    29e4:	363c 2090      	movew #8336,%d3
    29e8:	327c 2080      	moveaw #8320,%a1
    29ec:	6000 ff40      	braw 292e <readMouse+0x2ee>
    29f0:	4241           	clrw %d1
    29f2:	122f 0032      	moveb %sp@(50),%d1
    29f6:	e949           	lslw #4,%d1
    29f8:	4240           	clrw %d0
    29fa:	102f 0033      	moveb %sp@(51),%d0
    29fe:	8240           	orw %d0,%d1
    2a00:	4a03           	tstb %d3
    2a02:	672a           	beqs 2a2e <readMouse+0x3ee>
    2a04:	4a41           	tstw %d1
    2a06:	6622           	bnes 2a2a <readMouse+0x3ea>
    2a08:	72ff           	moveq #-1,%d1
    2a0a:	70ff           	moveq #-1,%d0
    2a0c:	6000 feea      	braw 28f8 <readMouse+0x2b8>
    2a10:	0c41 0002      	cmpiw #2,%d1
    2a14:	6f00 fd3c      	blew 2752 <readMouse+0x112>
    2a18:	0040 0001      	oriw #1,%d0
    2a1c:	6000 fd34      	braw 2752 <readMouse+0x112>
    2a20:	0042 ff00      	oriw #-256,%d2
    2a24:	3242           	moveaw %d2,%a1
    2a26:	6000 feb6      	braw 28de <readMouse+0x29e>
    2a2a:	0041 ff00      	oriw #-256,%d1
    2a2e:	3001           	movew %d1,%d0
    2a30:	6000 fec6      	braw 28f8 <readMouse+0x2b8>
    2a34:	323c ff00      	movew #-256,%d1
    2a38:	3001           	movew %d1,%d0
    2a3a:	6000 febc      	braw 28f8 <readMouse+0x2b8>
    2a3e:	343c ff00      	movew #-256,%d2
    2a42:	3242           	moveaw %d2,%a1
    2a44:	6000 fe98      	braw 28de <readMouse+0x29e>

00002a48 <readTeamPlayer>:
    2a48:	4fef ffdc      	lea %sp@(-36),%sp
    2a4c:	48e7 3f3e      	moveml %d2-%d7/%a2-%fp,%sp@-
    2a50:	266f 0054      	moveal %sp@(84),%a3
    2a54:	7200           	moveq #0,%d1
    2a56:	320b           	movew %a3,%d1
    2a58:	2041           	moveal %d1,%a0
    2a5a:	d1c8           	addal %a0,%a0
    2a5c:	247c 00a1 0003 	moveal #10551299,%a2
    2a62:	d5c8           	addal %a0,%a2
    2a64:	50f9 e0ff 0b79 	st e0ff0b79 <retry>
    2a6a:	13fc 0020 e0ff 	moveb #32,e0ff0b7a <phase.lto_priv.1>
    2a70:	0b7a 
    2a72:	227c 00a1 1100 	moveal #10555648,%a1
    2a78:	3211           	movew %a1@,%d1
    2a7a:	0801 0008      	btst #8,%d1
    2a7e:	6700 0238      	beqw 2cb8 <readTeamPlayer+0x270>
    2a82:	32bc 0100      	movew #256,%a1@
    2a86:	33fc 0100 00a1 	movew #256,a11200 <_stext+0x9cf148>
    2a8c:	1200 
    2a8e:	3239 00a1 1100 	movew a11100 <_stext+0x9cf048>,%d1
    2a94:	0801 0008      	btst #8,%d1
    2a98:	66f4           	bnes 2a8e <readTeamPlayer+0x46>
    2a9a:	99cc           	subal %a4,%a4
    2a9c:	d1fc 00a1 0009 	addal #10551305,%a0
    2aa2:	10bc 0060      	moveb #96,%a0@
    2aa6:	14bc 0060      	moveb #96,%a2@
    2aaa:	4e71           	nop
    2aac:	4e71           	nop
    2aae:	1212           	moveb %a2@,%d1
    2ab0:	0201 000f      	andib #15,%d1
    2ab4:	6708           	beqs 2abe <readTeamPlayer+0x76>
    2ab6:	0c01 0003      	cmpib #3,%d1
    2aba:	6600 0212      	bnew 2cce <readTeamPlayer+0x286>
    2abe:	14bc 0060      	moveb #96,%a2@
    2ac2:	1a39 e0ff 0b79 	moveb e0ff0b79 <retry>,%d5
    2ac8:	6700 023a      	beqw 2d04 <readTeamPlayer+0x2bc>
    2acc:	1205           	moveb %d5,%d1
    2ace:	4203           	clrb %d3
    2ad0:	7801           	moveq #1,%d4
    2ad2:	1412           	moveb %a2@,%d2
    2ad4:	0802 0004      	btst #4,%d2
    2ad8:	6614           	bnes 2aee <readTeamPlayer+0xa6>
    2ada:	5301           	subqb #1,%d1
    2adc:	1604           	moveb %d4,%d3
    2ade:	4a01           	tstb %d1
    2ae0:	6700 01ba      	beqw 2c9c <readTeamPlayer+0x254>
    2ae4:	1001           	moveb %d1,%d0
    2ae6:	1412           	moveb %a2@,%d2
    2ae8:	0802 0004      	btst #4,%d2
    2aec:	67ec           	beqs 2ada <readTeamPlayer+0x92>
    2aee:	4a03           	tstb %d3
    2af0:	6700 01f0      	beqw 2ce2 <readTeamPlayer+0x29a>
    2af4:	13c0 e0ff 0b79 	moveb %d0,e0ff0b79 <retry>
    2afa:	0202 000f      	andib #15,%d2
    2afe:	1f42 0048      	moveb %d2,%sp@(72)
    2b02:	1e39 e0ff 0b7a 	moveb e0ff0b7a <phase.lto_priv.1>,%d7
    2b08:	41ef 0049      	lea %sp@(73),%a0
    2b0c:	4def 0050      	lea %sp@(80),%fp
    2b10:	1200           	moveb %d0,%d1
    2b12:	4205           	clrb %d5
    2b14:	7c01           	moveq #1,%d6
    2b16:	2248           	moveal %a0,%a1
    2b18:	1487           	moveb %d7,%a2@
    2b1a:	1807           	moveb %d7,%d4
    2b1c:	e20c           	lsrb #1,%d4
    2b1e:	1412           	moveb %a2@,%d2
    2b20:	1604           	moveb %d4,%d3
    2b22:	b503           	eorb %d2,%d3
    2b24:	0803 0004      	btst #4,%d3
    2b28:	6766           	beqs 2b90 <readTeamPlayer+0x148>
    2b2a:	5301           	subqb #1,%d1
    2b2c:	1a06           	moveb %d6,%d5
    2b2e:	4a01           	tstb %d1
    2b30:	66ec           	bnes 2b1e <readTeamPlayer+0xd6>
    2b32:	4239 e0ff 0b79 	clrb e0ff0b79 <retry>
    2b38:	0202 000f      	andib #15,%d2
    2b3c:	1282           	moveb %d2,%a1@
    2b3e:	0a07 0020      	eorib #32,%d7
    2b42:	13c7 e0ff 0b7a 	moveb %d7,e0ff0b7a <phase.lto_priv.1>
    2b48:	14bc 0060      	moveb #96,%a2@
    2b4c:	320c           	movew %a4,%d1
    2b4e:	4a01           	tstb %d1
    2b50:	6700 0184      	beqw 2cd6 <readTeamPlayer+0x28e>
    2b54:	207c 00a1 1100 	moveal #10555648,%a0
    2b5a:	3010           	movew %a0@,%d0
    2b5c:	0800 0008      	btst #8,%d0
    2b60:	6700 015e      	beqw 2cc0 <readTeamPlayer+0x278>
    2b64:	30bc 0100      	movew #256,%a0@
    2b68:	33fc 0100 00a1 	movew #256,a11200 <_stext+0x9cf148>
    2b6e:	1200 
    2b70:	207c 00a1 1100 	moveal #10555648,%a0
    2b76:	3010           	movew %a0@,%d0
    2b78:	0800 0008      	btst #8,%d0
    2b7c:	66f2           	bnes 2b70 <readTeamPlayer+0x128>
    2b7e:	14bc 0060      	moveb #96,%a2@
    2b82:	30bc 0000      	movew #0,%a0@
    2b86:	4cdf 7cfc      	moveml %sp@+,%d2-%d7/%a2-%fp
    2b8a:	4fef 0024      	lea %sp@(36),%sp
    2b8e:	4e75           	rts
    2b90:	0202 000f      	andib #15,%d2
    2b94:	1282           	moveb %d2,%a1@
    2b96:	5288           	addql #1,%a0
    2b98:	0a07 0020      	eorib #32,%d7
    2b9c:	b1ce           	cmpal %fp,%a0
    2b9e:	6600 ff76      	bnew 2b16 <readTeamPlayer+0xce>
    2ba2:	13c7 e0ff 0b7a 	moveb %d7,e0ff0b7a <phase.lto_priv.1>
    2ba8:	4a05           	tstb %d5
    2baa:	6708           	beqs 2bb4 <readTeamPlayer+0x16c>
    2bac:	13c1 e0ff 0b79 	moveb %d1,e0ff0b79 <retry>
    2bb2:	1001           	moveb %d1,%d0
    2bb4:	360c           	movew %a4,%d3
    2bb6:	4a03           	tstb %d3
    2bb8:	6700 00cc      	beqw 2c86 <readTeamPlayer+0x23e>
    2bbc:	0c2f 0003 0048 	cmpib #3,%sp@(72)
    2bc2:	6690           	bnes 2b54 <readTeamPlayer+0x10c>
    2bc4:	0c2f 000f 0049 	cmpib #15,%sp@(73)
    2bca:	6688           	bnes 2b54 <readTeamPlayer+0x10c>
    2bcc:	122f 004a      	moveb %sp@(74),%d1
    2bd0:	822f 004b      	orb %sp@(75),%d1
    2bd4:	1f41 0030      	moveb %d1,%sp@(48)
    2bd8:	6600 ff7a      	bnew 2b54 <readTeamPlayer+0x10c>
    2bdc:	7200           	moveq #0,%d1
    2bde:	320b           	movew %a3,%d1
    2be0:	e789           	lsll #3,%d1
    2be2:	0681 0001 e64a 	addil #124490,%d1
    2be8:	2f41 0036      	movel %d1,%sp@(54)
    2bec:	49ef 004c      	lea %sp@(76),%a4
    2bf0:	41ef 0050      	lea %sp@(80),%a0
    2bf4:	2f48 003e      	movel %a0,%sp@(62)
    2bf8:	760f           	moveq #15,%d3
    2bfa:	4242           	clrw %d2
    2bfc:	4df9 e0ff 005e 	lea e0ff005e <joyState.lto_priv.0>,%fp
    2c02:	226f 0036      	moveal %sp@(54),%a1
    2c06:	54af 0036      	addql #2,%sp@(54)
    2c0a:	3059           	moveaw %a1@+,%a0
    2c0c:	181c           	moveb %a4@+,%d4
    2c0e:	0c04 0002      	cmpib #2,%d4
    2c12:	6700 01c6      	beqw 2dda <readTeamPlayer+0x392>
    2c16:	6200 00fe      	bhiw 2d16 <readTeamPlayer+0x2ce>
    2c1a:	4a04           	tstb %d4
    2c1c:	6700 0154      	beqw 2d72 <readTeamPlayer+0x32a>
    2c20:	227c 00a1 1100 	moveal #10555648,%a1
    2c26:	3211           	movew %a1@,%d1
    2c28:	0801 0008      	btst #8,%d1
    2c2c:	6700 03b4      	beqw 2fe2 <readTeamPlayer+0x59a>
    2c30:	32bc 0100      	movew #256,%a1@
    2c34:	33fc 0100 00a1 	movew #256,a11200 <_stext+0x9cf148>
    2c3a:	1200 
    2c3c:	227c 00a1 1100 	moveal #10555648,%a1
    2c42:	3211           	movew %a1@,%d1
    2c44:	0801 0008      	btst #8,%d1
    2c48:	66f2           	bnes 2c3c <readTeamPlayer+0x1f4>
    2c4a:	1439 e0ff 0b7a 	moveb e0ff0b7a <phase.lto_priv.1>,%d2
    2c50:	1482           	moveb %d2,%a2@
    2c52:	1802           	moveb %d2,%d4
    2c54:	e20c           	lsrb #1,%d4
    2c56:	4a00           	tstb %d0
    2c58:	6700 0464      	beqw 30be <readTeamPlayer+0x676>
    2c5c:	1c2f 0030      	moveb %sp@(48),%d6
    2c60:	1600           	moveb %d0,%d3
    2c62:	4207           	clrb %d7
    2c64:	327c 0001      	moveaw #1,%a1
    2c68:	1212           	moveb %a2@,%d1
    2c6a:	1a01           	moveb %d1,%d5
    2c6c:	b905           	eorb %d4,%d5
    2c6e:	0805 0004      	btst #4,%d5
    2c72:	6700 03fc      	beqw 3070 <readTeamPlayer+0x628>
    2c76:	5303           	subqb #1,%d3
    2c78:	3e09           	movew %a1,%d7
    2c7a:	4a03           	tstb %d3
    2c7c:	6700 0384      	beqw 3002 <readTeamPlayer+0x5ba>
    2c80:	1f43 003a      	moveb %d3,%sp@(58)
    2c84:	60e2           	bras 2c68 <readTeamPlayer+0x220>
    2c86:	33fc 0000 00a1 	movew #0,a11100 <_stext+0x9cf048>
    2c8c:	1100 
    2c8e:	0c2f 0003 0048 	cmpib #3,%sp@(72)
    2c94:	6600 febe      	bnew 2b54 <readTeamPlayer+0x10c>
    2c98:	6000 ff2a      	braw 2bc4 <readTeamPlayer+0x17c>
    2c9c:	4239 e0ff 0b79 	clrb e0ff0b79 <retry>
    2ca2:	0202 000f      	andib #15,%d2
    2ca6:	1f42 0048      	moveb %d2,%sp@(72)
    2caa:	14bc 0060      	moveb #96,%a2@
    2cae:	320c           	movew %a4,%d1
    2cb0:	4a01           	tstb %d1
    2cb2:	6600 fea0      	bnew 2b54 <readTeamPlayer+0x10c>
    2cb6:	601e           	bras 2cd6 <readTeamPlayer+0x28e>
    2cb8:	387c 0001      	moveaw #1,%a4
    2cbc:	6000 fdde      	braw 2a9c <readTeamPlayer+0x54>
    2cc0:	14bc 0060      	moveb #96,%a2@
    2cc4:	4cdf 7cfc      	moveml %sp@+,%d2-%d7/%a2-%fp
    2cc8:	4fef 0024      	lea %sp@(36),%sp
    2ccc:	4e75           	rts
    2cce:	340c           	movew %a4,%d2
    2cd0:	4a02           	tstb %d2
    2cd2:	6600 fe80      	bnew 2b54 <readTeamPlayer+0x10c>
    2cd6:	33fc 0000 00a1 	movew #0,a11100 <_stext+0x9cf048>
    2cdc:	1100 
    2cde:	6000 fe74      	braw 2b54 <readTeamPlayer+0x10c>
    2ce2:	1005           	moveb %d5,%d0
    2ce4:	0202 000f      	andib #15,%d2
    2ce8:	1f42 0048      	moveb %d2,%sp@(72)
    2cec:	1e39 e0ff 0b7a 	moveb e0ff0b7a <phase.lto_priv.1>,%d7
    2cf2:	41ef 0049      	lea %sp@(73),%a0
    2cf6:	4def 0050      	lea %sp@(80),%fp
    2cfa:	1200           	moveb %d0,%d1
    2cfc:	4205           	clrb %d5
    2cfe:	7c01           	moveq #1,%d6
    2d00:	6000 fe14      	braw 2b16 <readTeamPlayer+0xce>
    2d04:	422f 0048      	clrb %sp@(72)
    2d08:	14bc 0060      	moveb #96,%a2@
    2d0c:	320c           	movew %a4,%d1
    2d0e:	4a01           	tstb %d1
    2d10:	6600 fe42      	bnew 2b54 <readTeamPlayer+0x10c>
    2d14:	60c0           	bras 2cd6 <readTeamPlayer+0x28e>
    2d16:	0c04 000f      	cmpib #15,%d4
    2d1a:	6604           	bnes 2d20 <readTeamPlayer+0x2d8>
    2d1c:	760f           	moveq #15,%d3
    2d1e:	4242           	clrw %d2
    2d20:	4a00           	tstb %d0
    2d22:	6700 fe30      	beqw 2b54 <readTeamPlayer+0x10c>
    2d26:	7200           	moveq #0,%d1
    2d28:	3208           	movew %a0,%d1
    2d2a:	2041           	moveal %d1,%a0
    2d2c:	1803           	moveb %d3,%d4
    2d2e:	43f9 e0ff 0b9e 	lea e0ff0b9e <joyType>,%a1
    2d34:	1384 8800      	moveb %d4,%a1@(0,%a0:l)
    2d38:	2208           	movel %a0,%d1
    2d3a:	d288           	addl %a0,%d1
    2d3c:	3036 1800      	movew %fp@(0,%d1:l),%d0
    2d40:	3d82 1800      	movew %d2,%fp@(0,%d1:l)
    2d44:	b440           	cmpw %d0,%d2
    2d46:	6718           	beqs 2d60 <readTeamPlayer+0x318>
    2d48:	3f02           	movew %d2,%sp@-
    2d4a:	4267           	clrw %sp@-
    2d4c:	b540           	eorw %d2,%d0
    2d4e:	3f00           	movew %d0,%sp@-
    2d50:	4267           	clrw %sp@-
    2d52:	2f08           	movel %a0,%sp@-
    2d54:	2079 e0ff 0050 	moveal e0ff0050 <joyEventCB.lto_priv.0>,%a0
    2d5a:	4e90           	jsr %a0@
    2d5c:	4fef 000c      	lea %sp@(12),%sp
    2d60:	b9ef 003e      	cmpal %sp@(62),%a4
    2d64:	6700 fdee      	beqw 2b54 <readTeamPlayer+0x10c>
    2d68:	1039 e0ff 0b79 	moveb e0ff0b79 <retry>,%d0
    2d6e:	6000 fe92      	braw 2c02 <readTeamPlayer+0x1ba>
    2d72:	227c 00a1 1100 	moveal #10555648,%a1
    2d78:	3211           	movew %a1@,%d1
    2d7a:	0801 0008      	btst #8,%d1
    2d7e:	6700 023e      	beqw 2fbe <readTeamPlayer+0x576>
    2d82:	32bc 0100      	movew #256,%a1@
    2d86:	33fc 0100 00a1 	movew #256,a11200 <_stext+0x9cf148>
    2d8c:	1200 
    2d8e:	3239 00a1 1100 	movew a11100 <_stext+0x9cf048>,%d1
    2d94:	0801 0008      	btst #8,%d1
    2d98:	66f4           	bnes 2d8e <readTeamPlayer+0x346>
    2d9a:	1639 e0ff 0b7a 	moveb e0ff0b7a <phase.lto_priv.1>,%d3
    2da0:	1483           	moveb %d3,%a2@
    2da2:	1203           	moveb %d3,%d1
    2da4:	e209           	lsrb #1,%d1
    2da6:	3241           	moveaw %d1,%a1
    2da8:	1203           	moveb %d3,%d1
    2daa:	0a01 0020      	eorib #32,%d1
    2dae:	4a00           	tstb %d0
    2db0:	6700 0218      	beqw 2fca <readTeamPlayer+0x582>
    2db4:	1a00           	moveb %d0,%d5
    2db6:	4207           	clrb %d7
    2db8:	367c 0001      	moveaw #1,%a3
    2dbc:	1412           	moveb %a2@,%d2
    2dbe:	3c09           	movew %a1,%d6
    2dc0:	b506           	eorb %d2,%d6
    2dc2:	0806 0004      	btst #4,%d6
    2dc6:	6700 025c      	beqw 3024 <readTeamPlayer+0x5dc>
    2dca:	5305           	subqb #1,%d5
    2dcc:	3e0b           	movew %a3,%d7
    2dce:	4a05           	tstb %d5
    2dd0:	6700 01f2      	beqw 2fc4 <readTeamPlayer+0x57c>
    2dd4:	1f45 0031      	moveb %d5,%sp@(49)
    2dd8:	60e2           	bras 2dbc <readTeamPlayer+0x374>
    2dda:	227c 00a1 1100 	moveal #10555648,%a1
    2de0:	3211           	movew %a1@,%d1
    2de2:	0801 0008      	btst #8,%d1
    2de6:	6700 00a6      	beqw 2e8e <readTeamPlayer+0x446>
    2dea:	32bc 0100      	movew #256,%a1@
    2dee:	33fc 0100 00a1 	movew #256,a11200 <_stext+0x9cf148>
    2df4:	1200 
    2df6:	3239 00a1 1100 	movew a11100 <_stext+0x9cf048>,%d1
    2dfc:	0801 0008      	btst #8,%d1
    2e00:	66f4           	bnes 2df6 <readTeamPlayer+0x3ae>
    2e02:	1f6f 0030 002f 	moveb %sp@(48),%sp@(47)
    2e08:	1c39 e0ff 0b7a 	moveb e0ff0b7a <phase.lto_priv.1>,%d6
    2e0e:	4bef 0042      	lea %sp@(66),%a5
    2e12:	1486           	moveb %d6,%a2@
    2e14:	1a06           	moveb %d6,%d5
    2e16:	e20d           	lsrb #1,%d5
    2e18:	4a00           	tstb %d0
    2e1a:	6700 0182      	beqw 2f9e <readTeamPlayer+0x556>
    2e1e:	1200           	moveb %d0,%d1
    2e20:	97cb           	subal %a3,%a3
    2e22:	4207           	clrb %d7
    2e24:	42af 0032      	clrl %sp@(50)
    2e28:	327c 0001      	moveaw #1,%a1
    2e2c:	1412           	moveb %a2@,%d2
    2e2e:	1602           	moveb %d2,%d3
    2e30:	bb03           	eorb %d5,%d3
    2e32:	0803 0004      	btst #4,%d3
    2e36:	6738           	beqs 2e70 <readTeamPlayer+0x428>
    2e38:	5301           	subqb #1,%d1
    2e3a:	3e09           	movew %a1,%d7
    2e3c:	4a01           	tstb %d1
    2e3e:	66ec           	bnes 2e2c <readTeamPlayer+0x3e4>
    2e40:	4239 e0ff 0b79 	clrb e0ff0b79 <retry>
    2e46:	0202 000f      	andib #15,%d2
    2e4a:	202f 0032      	movel %sp@(50),%d0
    2e4e:	1f82 0842      	moveb %d2,%sp@(42,%d0:l)
    2e52:	0a06 0020      	eorib #32,%d6
    2e56:	13c6 e0ff 0b7a 	moveb %d6,e0ff0b7a <phase.lto_priv.1>
    2e5c:	4a2f 002f      	tstb %sp@(47)
    2e60:	6600 fcf2      	bnew 2b54 <readTeamPlayer+0x10c>
    2e64:	33fc 0000 00a1 	movew #0,a11100 <_stext+0x9cf048>
    2e6a:	1100 
    2e6c:	6000 fce6      	braw 2b54 <readTeamPlayer+0x10c>
    2e70:	0202 000f      	andib #15,%d2
    2e74:	1ac2           	moveb %d2,%a5@+
    2e76:	0a06 0020      	eorib #32,%d6
    2e7a:	528b           	addql #1,%a3
    2e7c:	7406           	moveq #6,%d2
    2e7e:	b48b           	cmpl %a3,%d2
    2e80:	6716           	beqs 2e98 <readTeamPlayer+0x450>
    2e82:	2f4b 0032      	movel %a3,%sp@(50)
    2e86:	1486           	moveb %d6,%a2@
    2e88:	1a06           	moveb %d6,%d5
    2e8a:	e20d           	lsrb #1,%d5
    2e8c:	609e           	bras 2e2c <readTeamPlayer+0x3e4>
    2e8e:	1f7c 0001 002f 	moveb #1,%sp@(47)
    2e94:	6000 ff72      	braw 2e08 <readTeamPlayer+0x3c0>
    2e98:	13c6 e0ff 0b7a 	moveb %d6,e0ff0b7a <phase.lto_priv.1>
    2e9e:	4a07           	tstb %d7
    2ea0:	6700 010a      	beqw 2fac <readTeamPlayer+0x564>
    2ea4:	13c1 e0ff 0b79 	moveb %d1,e0ff0b79 <retry>
    2eaa:	4a2f 002f      	tstb %sp@(47)
    2eae:	6700 0232      	beqw 30e2 <readTeamPlayer+0x69a>
    2eb2:	122f 0042      	moveb %sp@(66),%d1
    2eb6:	303c 0100      	movew #256,%d0
    2eba:	0801 0002      	btst #2,%d1
    2ebe:	6610           	bnes 2ed0 <readTeamPlayer+0x488>
    2ec0:	4240           	clrw %d0
    2ec2:	102f 0044      	moveb %sp@(68),%d0
    2ec6:	e948           	lslw #4,%d0
    2ec8:	4242           	clrw %d2
    2eca:	142f 0045      	moveb %sp@(69),%d2
    2ece:	8042           	orw %d2,%d0
    2ed0:	1601           	moveb %d1,%d3
    2ed2:	0203 0001      	andib #1,%d3
    2ed6:	0243 00ff      	andiw #255,%d3
    2eda:	4443           	negw %d3
    2edc:	0243 ff00      	andiw #-256,%d3
    2ee0:	8640           	orw %d0,%d3
    2ee2:	0801 0003      	btst #3,%d1
    2ee6:	6600 00ac      	bnew 2f94 <readTeamPlayer+0x54c>
    2eea:	4245           	clrw %d5
    2eec:	1a2f 0046      	moveb %sp@(70),%d5
    2ef0:	e94d           	lslw #4,%d5
    2ef2:	4240           	clrw %d0
    2ef4:	102f 0047      	moveb %sp@(71),%d0
    2ef8:	8a40           	orw %d0,%d5
    2efa:	3405           	movew %d5,%d2
    2efc:	0801 0001      	btst #1,%d1
    2f00:	6706           	beqs 2f08 <readTeamPlayer+0x4c0>
    2f02:	0042 ff00      	oriw #-256,%d2
    2f06:	3a02           	movew %d2,%d5
    2f08:	7000           	moveq #0,%d0
    2f0a:	3008           	movew %a0,%d0
    2f0c:	2040           	moveal %d0,%a0
    2f0e:	43f9 e0ff 0b8e 	lea e0ff0b8e <joyAxisX>,%a1
    2f14:	2208           	movel %a0,%d1
    2f16:	d288           	addl %a0,%d1
    2f18:	3031 1800      	movew %a1@(0,%d1:l),%d0
    2f1c:	d043           	addw %d3,%d0
    2f1e:	3380 1800      	movew %d0,%a1@(0,%d1:l)
    2f22:	43f9 e0ff 0b7e 	lea e0ff0b7e <joyAxisY>,%a1
    2f28:	3031 1800      	movew %a1@(0,%d1:l),%d0
    2f2c:	d042           	addw %d2,%d0
    2f2e:	3380 1800      	movew %d0,%a1@(0,%d1:l)
    2f32:	142f 0043      	moveb %sp@(67),%d2
    2f36:	1002           	moveb %d2,%d0
    2f38:	e608           	lsrb #3,%d0
    2f3a:	0240 0001      	andiw #1,%d0
    2f3e:	ef48           	lslw #7,%d0
    2f40:	0802 0002      	btst #2,%d2
    2f44:	6704           	beqs 2f4a <readTeamPlayer+0x502>
    2f46:	0040 0010      	oriw #16,%d0
    2f4a:	0802 0001      	btst #1,%d2
    2f4e:	6704           	beqs 2f54 <readTeamPlayer+0x50c>
    2f50:	0040 0020      	oriw #32,%d0
    2f54:	ed4a           	lslw #6,%d2
    2f56:	0242 0040      	andiw #64,%d2
    2f5a:	8440           	orw %d0,%d2
    2f5c:	0c43 fffe      	cmpiw #-2,%d3
    2f60:	6c14           	bges 2f76 <readTeamPlayer+0x52e>
    2f62:	0042 0004      	oriw #4,%d2
    2f66:	0c45 fffe      	cmpiw #-2,%d5
    2f6a:	6c16           	bges 2f82 <readTeamPlayer+0x53a>
    2f6c:	0042 0002      	oriw #2,%d2
    2f70:	7602           	moveq #2,%d3
    2f72:	6000 fdba      	braw 2d2e <readTeamPlayer+0x2e6>
    2f76:	0c43 0002      	cmpiw #2,%d3
    2f7a:	6fea           	bles 2f66 <readTeamPlayer+0x51e>
    2f7c:	0042 0008      	oriw #8,%d2
    2f80:	60e4           	bras 2f66 <readTeamPlayer+0x51e>
    2f82:	0c45 0002      	cmpiw #2,%d5
    2f86:	6f00 0166      	blew 30ee <readTeamPlayer+0x6a6>
    2f8a:	0042 0001      	oriw #1,%d2
    2f8e:	7602           	moveq #2,%d3
    2f90:	6000 fd9c      	braw 2d2e <readTeamPlayer+0x2e6>
    2f94:	3a3c 0100      	movew #256,%d5
    2f98:	3405           	movew %d5,%d2
    2f9a:	6000 ff60      	braw 2efc <readTeamPlayer+0x4b4>
    2f9e:	422f 0042      	clrb %sp@(66)
    2fa2:	0a06 0020      	eorib #32,%d6
    2fa6:	13c6 e0ff 0b7a 	moveb %d6,e0ff0b7a <phase.lto_priv.1>
    2fac:	4a2f 002f      	tstb %sp@(47)
    2fb0:	6700 011e      	beqw 30d0 <readTeamPlayer+0x688>
    2fb4:	4a00           	tstb %d0
    2fb6:	6700 fb9c      	beqw 2b54 <readTeamPlayer+0x10c>
    2fba:	6000 fef6      	braw 2eb2 <readTeamPlayer+0x46a>
    2fbe:	7801           	moveq #1,%d4
    2fc0:	6000 fdd8      	braw 2d9a <readTeamPlayer+0x352>
    2fc4:	4239 e0ff 0b79 	clrb e0ff0b79 <retry>
    2fca:	13c1 e0ff 0b7a 	moveb %d1,e0ff0b7a <phase.lto_priv.1>
    2fd0:	4a04           	tstb %d4
    2fd2:	6600 fb80      	bnew 2b54 <readTeamPlayer+0x10c>
    2fd6:	33fc 0000 00a1 	movew #0,a11100 <_stext+0x9cf048>
    2fdc:	1100 
    2fde:	6000 fb74      	braw 2b54 <readTeamPlayer+0x10c>
    2fe2:	1439 e0ff 0b7a 	moveb e0ff0b7a <phase.lto_priv.1>,%d2
    2fe8:	1482           	moveb %d2,%a2@
    2fea:	1802           	moveb %d2,%d4
    2fec:	e20c           	lsrb #1,%d4
    2fee:	4a00           	tstb %d0
    2ff0:	6700 0170      	beqw 3162 <readTeamPlayer+0x71a>
    2ff4:	7c01           	moveq #1,%d6
    2ff6:	1600           	moveb %d0,%d3
    2ff8:	4207           	clrb %d7
    2ffa:	327c 0001      	moveaw #1,%a1
    2ffe:	6000 fc68      	braw 2c68 <readTeamPlayer+0x220>
    3002:	0a02 0020      	eorib #32,%d2
    3006:	4239 e0ff 0b79 	clrb e0ff0b79 <retry>
    300c:	13c2 e0ff 0b7a 	moveb %d2,e0ff0b7a <phase.lto_priv.1>
    3012:	4a06           	tstb %d6
    3014:	6600 fb3e      	bnew 2b54 <readTeamPlayer+0x10c>
    3018:	33fc 0000 00a1 	movew #0,a11100 <_stext+0x9cf048>
    301e:	1100 
    3020:	6000 fb32      	braw 2b54 <readTeamPlayer+0x10c>
    3024:	4a07           	tstb %d7
    3026:	670c           	beqs 3034 <readTeamPlayer+0x5ec>
    3028:	13ef 0031 e0ff 	moveb %sp@(49),e0ff0b79 <retry>
    302e:	0b79 
    3030:	102f 0031      	moveb %sp@(49),%d0
    3034:	1c02           	moveb %d2,%d6
    3036:	0206 000f      	andib #15,%d6
    303a:	13c1 e0ff 0b7a 	moveb %d1,e0ff0b7a <phase.lto_priv.1>
    3040:	1481           	moveb %d1,%a2@
    3042:	e209           	lsrb #1,%d1
    3044:	3641           	moveaw %d1,%a3
    3046:	4202           	clrb %d2
    3048:	327c 0001      	moveaw #1,%a1
    304c:	1212           	moveb %a2@,%d1
    304e:	3e0b           	movew %a3,%d7
    3050:	b307           	eorb %d1,%d7
    3052:	1a07           	moveb %d7,%d5
    3054:	0205 0010      	andib #16,%d5
    3058:	0807 0004      	btst #4,%d7
    305c:	6700 00b4      	beqw 3112 <readTeamPlayer+0x6ca>
    3060:	5300           	subqb #1,%d0
    3062:	3409           	movew %a1,%d2
    3064:	4a00           	tstb %d0
    3066:	6700 008c      	beqw 30f4 <readTeamPlayer+0x6ac>
    306a:	1f40 003d      	moveb %d0,%sp@(61)
    306e:	60dc           	bras 304c <readTeamPlayer+0x604>
    3070:	4a07           	tstb %d7
    3072:	670c           	beqs 3080 <readTeamPlayer+0x638>
    3074:	13ef 003a e0ff 	moveb %sp@(58),e0ff0b79 <retry>
    307a:	0b79 
    307c:	102f 003a      	moveb %sp@(58),%d0
    3080:	0201 000f      	andib #15,%d1
    3084:	1a02           	moveb %d2,%d5
    3086:	0a05 0020      	eorib #32,%d5
    308a:	13c5 e0ff 0b7a 	moveb %d5,e0ff0b7a <phase.lto_priv.1>
    3090:	1485           	moveb %d5,%a2@
    3092:	1605           	moveb %d5,%d3
    3094:	e20b           	lsrb #1,%d3
    3096:	3643           	moveaw %d3,%a3
    3098:	4207           	clrb %d7
    309a:	327c 0001      	moveaw #1,%a1
    309e:	3a41           	moveaw %d1,%a5
    30a0:	1612           	moveb %a2@,%d3
    30a2:	320b           	movew %a3,%d1
    30a4:	b701           	eorb %d3,%d1
    30a6:	0801 0004      	btst #4,%d1
    30aa:	6700 00c4      	beqw 3170 <readTeamPlayer+0x728>
    30ae:	5300           	subqb #1,%d0
    30b0:	3e09           	movew %a1,%d7
    30b2:	4a00           	tstb %d0
    30b4:	6700 ff50      	beqw 3006 <readTeamPlayer+0x5be>
    30b8:	1f40 003c      	moveb %d0,%sp@(60)
    30bc:	60e2           	bras 30a0 <readTeamPlayer+0x658>
    30be:	0a02 0020      	eorib #32,%d2
    30c2:	13c2 e0ff 0b7a 	moveb %d2,e0ff0b7a <phase.lto_priv.1>
    30c8:	32bc 0000      	movew #0,%a1@
    30cc:	6000 fa86      	braw 2b54 <readTeamPlayer+0x10c>
    30d0:	33fc 0000 00a1 	movew #0,a11100 <_stext+0x9cf048>
    30d6:	1100 
    30d8:	4a00           	tstb %d0
    30da:	6700 fa78      	beqw 2b54 <readTeamPlayer+0x10c>
    30de:	6000 fdd2      	braw 2eb2 <readTeamPlayer+0x46a>
    30e2:	33fc 0000 00a1 	movew #0,a11100 <_stext+0x9cf048>
    30e8:	1100 
    30ea:	6000 fdc6      	braw 2eb2 <readTeamPlayer+0x46a>
    30ee:	7602           	moveq #2,%d3
    30f0:	6000 fc3c      	braw 2d2e <readTeamPlayer+0x2e6>
    30f4:	4239 e0ff 0b79 	clrb e0ff0b79 <retry>
    30fa:	13c3 e0ff 0b7a 	moveb %d3,e0ff0b7a <phase.lto_priv.1>
    3100:	4a04           	tstb %d4
    3102:	6600 fa50      	bnew 2b54 <readTeamPlayer+0x10c>
    3106:	33fc 0000 00a1 	movew #0,a11100 <_stext+0x9cf048>
    310c:	1100 
    310e:	6000 fa44      	braw 2b54 <readTeamPlayer+0x10c>
    3112:	4a02           	tstb %d2
    3114:	6708           	beqs 311e <readTeamPlayer+0x6d6>
    3116:	13ef 003d e0ff 	moveb %sp@(61),e0ff0b79 <retry>
    311c:	0b79 
    311e:	1039 e0ff 0b79 	moveb e0ff0b79 <retry>,%d0
    3124:	1401           	moveb %d1,%d2
    3126:	0202 000f      	andib #15,%d2
    312a:	13c3 e0ff 0b7a 	moveb %d3,e0ff0b7a <phase.lto_priv.1>
    3130:	4a04           	tstb %d4
    3132:	6724           	beqs 3158 <readTeamPlayer+0x710>
    3134:	4a00           	tstb %d0
    3136:	6700 fa1c      	beqw 2b54 <readTeamPlayer+0x10c>
    313a:	0242 00ff      	andiw #255,%d2
    313e:	e94a           	lslw #4,%d2
    3140:	0246 00ff      	andiw #255,%d6
    3144:	8446           	orw %d6,%d2
    3146:	0a42 00ff      	eoriw #255,%d2
    314a:	7600           	moveq #0,%d3
    314c:	3608           	movew %a0,%d3
    314e:	2043           	moveal %d3,%a0
    3150:	1805           	moveb %d5,%d4
    3152:	4243           	clrw %d3
    3154:	6000 fbd8      	braw 2d2e <readTeamPlayer+0x2e6>
    3158:	33fc 0000 00a1 	movew #0,a11100 <_stext+0x9cf048>
    315e:	1100 
    3160:	60d2           	bras 3134 <readTeamPlayer+0x6ec>
    3162:	0a02 0020      	eorib #32,%d2
    3166:	13c2 e0ff 0b7a 	moveb %d2,e0ff0b7a <phase.lto_priv.1>
    316c:	6000 f9e6      	braw 2b54 <readTeamPlayer+0x10c>
    3170:	320d           	movew %a5,%d1
    3172:	4a07           	tstb %d7
    3174:	6708           	beqs 317e <readTeamPlayer+0x736>
    3176:	13ef 003c e0ff 	moveb %sp@(60),e0ff0b79 <retry>
    317c:	0b79 
    317e:	1039 e0ff 0b79 	moveb e0ff0b79 <retry>,%d0
    3184:	0203 000f      	andib #15,%d3
    3188:	13c2 e0ff 0b7a 	moveb %d2,e0ff0b7a <phase.lto_priv.1>
    318e:	1482           	moveb %d2,%a2@
    3190:	4207           	clrb %d7
    3192:	327c 0001      	moveaw #1,%a1
    3196:	3641           	moveaw %d1,%a3
    3198:	4a00           	tstb %d0
    319a:	6724           	beqs 31c0 <readTeamPlayer+0x778>
    319c:	1412           	moveb %a2@,%d2
    319e:	1202           	moveb %d2,%d1
    31a0:	b901           	eorb %d4,%d1
    31a2:	0801 0004      	btst #4,%d1
    31a6:	6760           	beqs 3208 <readTeamPlayer+0x7c0>
    31a8:	5300           	subqb #1,%d0
    31aa:	3e09           	movew %a1,%d7
    31ac:	4a00           	tstb %d0
    31ae:	6706           	beqs 31b6 <readTeamPlayer+0x76e>
    31b0:	1f40 003b      	moveb %d0,%sp@(59)
    31b4:	60e6           	bras 319c <readTeamPlayer+0x754>
    31b6:	320b           	movew %a3,%d1
    31b8:	4239 e0ff 0b79 	clrb e0ff0b79 <retry>
    31be:	1002           	moveb %d2,%d0
    31c0:	1400           	moveb %d0,%d2
    31c2:	0202 000f      	andib #15,%d2
    31c6:	13c5 e0ff 0b7a 	moveb %d5,e0ff0b7a <phase.lto_priv.1>
    31cc:	1039 e0ff 0b79 	moveb e0ff0b79 <retry>,%d0
    31d2:	4a06           	tstb %d6
    31d4:	6728           	beqs 31fe <readTeamPlayer+0x7b6>
    31d6:	4a00           	tstb %d0
    31d8:	6700 f97a      	beqw 2b54 <readTeamPlayer+0x10c>
    31dc:	e14a           	lslw #8,%d2
    31de:	4240           	clrw %d0
    31e0:	1003           	moveb %d3,%d0
    31e2:	e948           	lslw #4,%d0
    31e4:	8440           	orw %d0,%d2
    31e6:	0241 00ff      	andiw #255,%d1
    31ea:	8441           	orw %d1,%d2
    31ec:	0a42 0fff      	eoriw #4095,%d2
    31f0:	7000           	moveq #0,%d0
    31f2:	3008           	movew %a0,%d0
    31f4:	2040           	moveal %d0,%a0
    31f6:	7801           	moveq #1,%d4
    31f8:	7601           	moveq #1,%d3
    31fa:	6000 fb32      	braw 2d2e <readTeamPlayer+0x2e6>
    31fe:	33fc 0000 00a1 	movew #0,a11100 <_stext+0x9cf048>
    3204:	1100 
    3206:	60ce           	bras 31d6 <readTeamPlayer+0x78e>
    3208:	320b           	movew %a3,%d1
    320a:	4a07           	tstb %d7
    320c:	67b0           	beqs 31be <readTeamPlayer+0x776>
    320e:	13ef 003b e0ff 	moveb %sp@(59),e0ff0b79 <retry>
    3214:	0b79 
    3216:	1002           	moveb %d2,%d0
    3218:	60a6           	bras 31c0 <readTeamPlayer+0x778>

0000321a <readLightgun>:
    321a:	48e7 3e30      	moveml %d2-%d6/%a2-%a3,%sp@-
    321e:	202f 0020      	movel %sp@(32),%d0
    3222:	3400           	movew %d0,%d2
    3224:	0280 0000 ffff 	andil #65535,%d0
    322a:	2040           	moveal %d0,%a0
    322c:	d1c0           	addal %d0,%a0
    322e:	247c 00a1 0003 	moveal #10551299,%a2
    3234:	d5c8           	addal %a0,%a2
    3236:	43f9 e0ff 0ba8 	lea e0ff0ba8 <portType>,%a1
    323c:	1231 0800      	moveb %a1@(0,%d0:l),%d1
    3240:	1639 e0ff 0b7c 	moveb e0ff0b7c <extSet>,%d3
    3246:	0c01 0001      	cmpib #1,%d1
    324a:	6700 033c      	beqw 3588 <readLightgun+0x36e>
    324e:	4a03           	tstb %d3
    3250:	6600 012c      	bnew 337e <readLightgun+0x164>
    3254:	4a39 e0ff 0b7b 	tstb e0ff0b7b <gun>
    325a:	6600 0300      	bnew 355c <readLightgun+0x342>
    325e:	43f9 e0ff 0b8e 	lea e0ff0b8e <joyAxisX>,%a1
    3264:	2040           	moveal %d0,%a0
    3266:	d1c0           	addal %d0,%a0
    3268:	31bc ffff 9800 	movew #-1,%a0@(0,%a1:l)
    326e:	43f9 e0ff 0b7e 	lea e0ff0b7e <joyAxisY>,%a1
    3274:	31bc ffff 9800 	movew #-1,%a0@(0,%a1:l)
    327a:	4a01           	tstb %d1
    327c:	6700 018e      	beqw 340c <readLightgun+0x1f2>
    3280:	0c01 0001      	cmpib #1,%d1
    3284:	6600 00fe      	bnew 3384 <readLightgun+0x16a>
    3288:	207c 00a1 1100 	moveal #10555648,%a0
    328e:	3210           	movew %a0@,%d1
    3290:	0801 0008      	btst #8,%d1
    3294:	6700 0366      	beqw 35fc <readLightgun+0x3e2>
    3298:	30bc 0100      	movew #256,%a0@
    329c:	33fc 0100 00a1 	movew #256,a11200 <_stext+0x9cf148>
    32a2:	1200 
    32a4:	207c 00a1 1100 	moveal #10555648,%a0
    32aa:	3210           	movew %a0@,%d1
    32ac:	0801 0008      	btst #8,%d1
    32b0:	66f2           	bnes 32a4 <readLightgun+0x8a>
    32b2:	14bc 0000      	moveb #0,%a2@
    32b6:	1212           	moveb %a2@,%d1
    32b8:	1612           	moveb %a2@,%d3
    32ba:	14bc 0010      	moveb #16,%a2@
    32be:	30bc 0000      	movew #0,%a0@
    32c2:	1203           	moveb %d3,%d1
    32c4:	e209           	lsrb #1,%d1
    32c6:	0a01 0001      	eorib #1,%d1
    32ca:	0241 0001      	andiw #1,%d1
    32ce:	ef49           	lslw #7,%d1
    32d0:	0803 0000      	btst #0,%d3
    32d4:	6604           	bnes 32da <readLightgun+0xc0>
    32d6:	0041 0040      	oriw #64,%d1
    32da:	41f9 e0ff 005e 	lea e0ff005e <joyState.lto_priv.0>,%a0
    32e0:	2240           	moveal %d0,%a1
    32e2:	d3c0           	addal %d0,%a1
    32e4:	3631 8800      	movew %a1@(0,%a0:l),%d3
    32e8:	47f9 e0ff 0b9e 	lea e0ff0b9e <joyType>,%a3
    32ee:	17bc 0005 0800 	moveb #5,%a3@(0,%d0:l)
    32f4:	3381 8800      	movew %d1,%a1@(0,%a0:l)
    32f8:	2079 e0ff 0050 	moveal e0ff0050 <joyEventCB.lto_priv.0>,%a0
    32fe:	b0fc 0000      	cmpaw #0,%a0
    3302:	6716           	beqs 331a <readLightgun+0x100>
    3304:	b243           	cmpw %d3,%d1
    3306:	6712           	beqs 331a <readLightgun+0x100>
    3308:	3f01           	movew %d1,%sp@-
    330a:	4267           	clrw %sp@-
    330c:	b343           	eorw %d1,%d3
    330e:	3f03           	movew %d3,%sp@-
    3310:	4267           	clrw %sp@-
    3312:	2f00           	movel %d0,%sp@-
    3314:	4e90           	jsr %a0@
    3316:	4fef 000c      	lea %sp@(12),%sp
    331a:	4a42           	tstw %d2
    331c:	6700 035e      	beqw 367c <readLightgun+0x462>
    3320:	7005           	moveq #5,%d0
    3322:	41f9 e0ff 0b9e 	lea e0ff0b9e <joyType>,%a0
    3328:	1230 0800      	moveb %a0@(0,%d0:l),%d1
    332c:	0c01 0005      	cmpib #5,%d1
    3330:	6700 03b4      	beqw 36e6 <readLightgun+0x4cc>
    3334:	1239 e0ff 0b7b 	moveb e0ff0b7b <gun>,%d1
    333a:	207c 00a1 1100 	moveal #10555648,%a0
    3340:	3010           	movew %a0@,%d0
    3342:	1401           	moveb %d1,%d2
    3344:	0002 0010      	orib #16,%d2
    3348:	0800 0008      	btst #8,%d0
    334c:	6700 0388      	beqw 36d6 <readLightgun+0x4bc>
    3350:	30bc 0100      	movew #256,%a0@
    3354:	33fc 0100 00a1 	movew #256,a11200 <_stext+0x9cf148>
    335a:	1200 
    335c:	207c 00a1 1100 	moveal #10555648,%a0
    3362:	3010           	movew %a0@,%d0
    3364:	0800 0008      	btst #8,%d0
    3368:	66f2           	bnes 335c <readLightgun+0x142>
    336a:	1482           	moveb %d2,%a2@
    336c:	1481           	moveb %d1,%a2@
    336e:	30bc 0000      	movew #0,%a0@
    3372:	4239 e0ff 0b7c 	clrb e0ff0b7c <extSet>
    3378:	4cdf 0c7c      	moveml %sp@+,%d2-%d6/%a2-%a3
    337c:	4e75           	rts
    337e:	4a01           	tstb %d1
    3380:	6700 008a      	beqw 340c <readLightgun+0x1f2>
    3384:	207c 00a1 1100 	moveal #10555648,%a0
    338a:	3210           	movew %a0@,%d1
    338c:	0801 0008      	btst #8,%d1
    3390:	6700 02ac      	beqw 363e <readLightgun+0x424>
    3394:	30bc 0100      	movew #256,%a0@
    3398:	33fc 0100 00a1 	movew #256,a11200 <_stext+0x9cf148>
    339e:	1200 
    33a0:	207c 00a1 1100 	moveal #10555648,%a0
    33a6:	3210           	movew %a0@,%d1
    33a8:	0801 0008      	btst #8,%d1
    33ac:	66f2           	bnes 33a0 <readLightgun+0x186>
    33ae:	1212           	moveb %a2@,%d1
    33b0:	30bc 0000      	movew #0,%a0@
    33b4:	e809           	lsrb #4,%d1
    33b6:	0a01 0001      	eorib #1,%d1
    33ba:	0241 0001      	andiw #1,%d1
    33be:	ed49           	lslw #6,%d1
    33c0:	41f9 e0ff 005e 	lea e0ff005e <joyState.lto_priv.0>,%a0
    33c6:	2240           	moveal %d0,%a1
    33c8:	d3c0           	addal %d0,%a1
    33ca:	3431 8800      	movew %a1@(0,%a0:l),%d2
    33ce:	45f9 e0ff 0b9e 	lea e0ff0b9e <joyType>,%a2
    33d4:	15bc 0006 0800 	moveb #6,%a2@(0,%d0:l)
    33da:	3381 8800      	movew %d1,%a1@(0,%a0:l)
    33de:	2079 e0ff 0050 	moveal e0ff0050 <joyEventCB.lto_priv.0>,%a0
    33e4:	b0fc 0000      	cmpaw #0,%a0
    33e8:	6788           	beqs 3372 <readLightgun+0x158>
    33ea:	b242           	cmpw %d2,%d1
    33ec:	6784           	beqs 3372 <readLightgun+0x158>
    33ee:	3f01           	movew %d1,%sp@-
    33f0:	4267           	clrw %sp@-
    33f2:	b342           	eorw %d1,%d2
    33f4:	3f02           	movew %d2,%sp@-
    33f6:	4267           	clrw %sp@-
    33f8:	2f00           	movel %d0,%sp@-
    33fa:	4e90           	jsr %a0@
    33fc:	4fef 000c      	lea %sp@(12),%sp
    3400:	4239 e0ff 0b7c 	clrb e0ff0b7c <extSet>
    3406:	4cdf 0c7c      	moveml %sp@+,%d2-%d6/%a2-%a3
    340a:	4e75           	rts
    340c:	323c 00a0      	movew #160,%d1
    3410:	51c9 fffe      	dbf %d1,3410 <readLightgun+0x1f6>
    3414:	207c 00a1 1100 	moveal #10555648,%a0
    341a:	3210           	movew %a0@,%d1
    341c:	0801 0008      	btst #8,%d1
    3420:	6700 02ac      	beqw 36ce <readLightgun+0x4b4>
    3424:	30bc 0100      	movew #256,%a0@
    3428:	33fc 0100 00a1 	movew #256,a11200 <_stext+0x9cf148>
    342e:	1200 
    3430:	207c 00a1 1100 	moveal #10555648,%a0
    3436:	3210           	movew %a0@,%d1
    3438:	0801 0008      	btst #8,%d1
    343c:	66f2           	bnes 3430 <readLightgun+0x216>
    343e:	14bc ffff      	moveb #-1,%a2@
    3442:	30bc 0000      	movew #0,%a0@
    3446:	7214           	moveq #20,%d1
    3448:	51c9 fffe      	dbf %d1,3448 <readLightgun+0x22e>
    344c:	207c 00a1 1100 	moveal #10555648,%a0
    3452:	3210           	movew %a0@,%d1
    3454:	0801 0008      	btst #8,%d1
    3458:	6700 026c      	beqw 36c6 <readLightgun+0x4ac>
    345c:	30bc 0100      	movew #256,%a0@
    3460:	33fc 0100 00a1 	movew #256,a11200 <_stext+0x9cf148>
    3466:	1200 
    3468:	207c 00a1 1100 	moveal #10555648,%a0
    346e:	3210           	movew %a0@,%d1
    3470:	0801 0008      	btst #8,%d1
    3474:	66f2           	bnes 3468 <readLightgun+0x24e>
    3476:	14bc ffdf      	moveb #-33,%a2@
    347a:	30bc 0000      	movew #0,%a0@
    347e:	723c           	moveq #60,%d1
    3480:	51c9 fffe      	dbf %d1,3480 <readLightgun+0x266>
    3484:	207c 00a1 1100 	moveal #10555648,%a0
    348a:	3210           	movew %a0@,%d1
    348c:	0801 0008      	btst #8,%d1
    3490:	6700 01f0      	beqw 3682 <readLightgun+0x468>
    3494:	30bc 0100      	movew #256,%a0@
    3498:	33fc 0100 00a1 	movew #256,a11200 <_stext+0x9cf148>
    349e:	1200 
    34a0:	207c 00a1 1100 	moveal #10555648,%a0
    34a6:	3210           	movew %a0@,%d1
    34a8:	0801 0008      	btst #8,%d1
    34ac:	66f2           	bnes 34a0 <readLightgun+0x286>
    34ae:	14bc ffff      	moveb #-1,%a2@
    34b2:	4e71           	nop
    34b4:	14bc ffdf      	moveb #-33,%a2@
    34b8:	30bc 0000      	movew #0,%a0@
    34bc:	323c 0438      	movew #1080,%d1
    34c0:	51c9 fffe      	dbf %d1,34c0 <readLightgun+0x2a6>
    34c4:	207c 00a1 1100 	moveal #10555648,%a0
    34ca:	3210           	movew %a0@,%d1
    34cc:	0801 0008      	btst #8,%d1
    34d0:	6700 01d2      	beqw 36a4 <readLightgun+0x48a>
    34d4:	30bc 0100      	movew #256,%a0@
    34d8:	33fc 0100 00a1 	movew #256,a11200 <_stext+0x9cf148>
    34de:	1200 
    34e0:	207c 00a1 1100 	moveal #10555648,%a0
    34e6:	3210           	movew %a0@,%d1
    34e8:	0801 0008      	btst #8,%d1
    34ec:	66f2           	bnes 34e0 <readLightgun+0x2c6>
    34ee:	1212           	moveb %a2@,%d1
    34f0:	14bc ffff      	moveb #-1,%a2@
    34f4:	4e71           	nop
    34f6:	14bc ffcf      	moveb #-49,%a2@
    34fa:	30bc 0000      	movew #0,%a0@
    34fe:	1401           	moveb %d1,%d2
    3500:	e60a           	lsrb #3,%d2
    3502:	0242 0001      	andiw #1,%d2
    3506:	ef4a           	lslw #7,%d2
    3508:	0801 0002      	btst #2,%d1
    350c:	6704           	beqs 3512 <readLightgun+0x2f8>
    350e:	0042 0020      	oriw #32,%d2
    3512:	0801 0001      	btst #1,%d1
    3516:	6704           	beqs 351c <readLightgun+0x302>
    3518:	0042 0040      	oriw #64,%d2
    351c:	e949           	lslw #4,%d1
    351e:	0241 0010      	andiw #16,%d1
    3522:	8242           	orw %d2,%d1
    3524:	41f9 e0ff 005e 	lea e0ff005e <joyState.lto_priv.0>,%a0
    352a:	2240           	moveal %d0,%a1
    352c:	d3c0           	addal %d0,%a1
    352e:	3431 8800      	movew %a1@(0,%a0:l),%d2
    3532:	45f9 e0ff 0b9e 	lea e0ff0b9e <joyType>,%a2
    3538:	15bc 0004 0800 	moveb #4,%a2@(0,%d0:l)
    353e:	3381 8800      	movew %d1,%a1@(0,%a0:l)
    3542:	2079 e0ff 0050 	moveal e0ff0050 <joyEventCB.lto_priv.0>,%a0
    3548:	b0fc 0000      	cmpaw #0,%a0
    354c:	6600 fe9c      	bnew 33ea <readLightgun+0x1d0>
    3550:	4239 e0ff 0b7c 	clrb e0ff0b7c <extSet>
    3556:	4cdf 0c7c      	moveml %sp@+,%d2-%d6/%a2-%a3
    355a:	4e75           	rts
    355c:	4a42           	tstw %d2
    355e:	677c           	beqs 35dc <readLightgun+0x3c2>
    3560:	307c 0005      	moveaw #5,%a0
    3564:	d1c8           	addal %a0,%a0
    3566:	43f9 e0ff 0b8e 	lea e0ff0b8e <joyAxisX>,%a1
    356c:	31bc ffff 9800 	movew #-1,%a0@(0,%a1:l)
    3572:	43f9 e0ff 0b7e 	lea e0ff0b7e <joyAxisY>,%a1
    3578:	31bc ffff 9800 	movew #-1,%a0@(0,%a1:l)
    357e:	4a01           	tstb %d1
    3580:	6600 fcfe      	bnew 3280 <readLightgun+0x66>
    3584:	6000 fe86      	braw 340c <readLightgun+0x1f2>
    3588:	227c 00a1 1100 	moveal #10555648,%a1
    358e:	3a11           	movew %a1@,%d5
    3590:	1839 e0ff 0b7b 	moveb e0ff0b7b <gun>,%d4
    3596:	1c04           	moveb %d4,%d6
    3598:	0006 0010      	orib #16,%d6
    359c:	0805 0008      	btst #8,%d5
    35a0:	676a           	beqs 360c <readLightgun+0x3f2>
    35a2:	32bc 0100      	movew #256,%a1@
    35a6:	33fc 0100 00a1 	movew #256,a11200 <_stext+0x9cf148>
    35ac:	1200 
    35ae:	207c 00a1 1100 	moveal #10555648,%a0
    35b4:	3210           	movew %a0@,%d1
    35b6:	0801 0008      	btst #8,%d1
    35ba:	66f2           	bnes 35ae <readLightgun+0x394>
    35bc:	1486           	moveb %d6,%a2@
    35be:	30bc 0000      	movew #0,%a0@
    35c2:	41f9 e0ff 0ba8 	lea e0ff0ba8 <portType>,%a0
    35c8:	1230 0800      	moveb %a0@(0,%d0:l),%d1
    35cc:	4a03           	tstb %d3
    35ce:	6700 fc84      	beqw 3254 <readLightgun+0x3a>
    35d2:	4a01           	tstb %d1
    35d4:	6600 fcaa      	bnew 3280 <readLightgun+0x66>
    35d8:	6000 fe32      	braw 340c <readLightgun+0x1f2>
    35dc:	307c 0002      	moveaw #2,%a0
    35e0:	d1c8           	addal %a0,%a0
    35e2:	43f9 e0ff 0b8e 	lea e0ff0b8e <joyAxisX>,%a1
    35e8:	31bc ffff 9800 	movew #-1,%a0@(0,%a1:l)
    35ee:	43f9 e0ff 0b7e 	lea e0ff0b7e <joyAxisY>,%a1
    35f4:	31bc ffff 9800 	movew #-1,%a0@(0,%a1:l)
    35fa:	6082           	bras 357e <readLightgun+0x364>
    35fc:	14bc 0000      	moveb #0,%a2@
    3600:	1212           	moveb %a2@,%d1
    3602:	1612           	moveb %a2@,%d3
    3604:	14bc 0010      	moveb #16,%a2@
    3608:	6000 fcb8      	braw 32c2 <readLightgun+0xa8>
    360c:	1486           	moveb %d6,%a2@
    360e:	4a03           	tstb %d3
    3610:	6600 fc76      	bnew 3288 <readLightgun+0x6e>
    3614:	4a04           	tstb %d4
    3616:	6600 ff44      	bnew 355c <readLightgun+0x342>
    361a:	43f9 e0ff 0b8e 	lea e0ff0b8e <joyAxisX>,%a1
    3620:	31bc ffff 9800 	movew #-1,%a0@(0,%a1:l)
    3626:	43f9 e0ff 0b7e 	lea e0ff0b7e <joyAxisY>,%a1
    362c:	31bc ffff 9800 	movew #-1,%a0@(0,%a1:l)
    3632:	0c01 0001      	cmpib #1,%d1
    3636:	6700 fc50      	beqw 3288 <readLightgun+0x6e>
    363a:	6000 fd48      	braw 3384 <readLightgun+0x16a>
    363e:	1212           	moveb %a2@,%d1
    3640:	e809           	lsrb #4,%d1
    3642:	0a01 0001      	eorib #1,%d1
    3646:	0241 0001      	andiw #1,%d1
    364a:	ed49           	lslw #6,%d1
    364c:	41f9 e0ff 005e 	lea e0ff005e <joyState.lto_priv.0>,%a0
    3652:	2240           	moveal %d0,%a1
    3654:	d3c0           	addal %d0,%a1
    3656:	3431 8800      	movew %a1@(0,%a0:l),%d2
    365a:	45f9 e0ff 0b9e 	lea e0ff0b9e <joyType>,%a2
    3660:	15bc 0006 0800 	moveb #6,%a2@(0,%d0:l)
    3666:	3381 8800      	movew %d1,%a1@(0,%a0:l)
    366a:	2079 e0ff 0050 	moveal e0ff0050 <joyEventCB.lto_priv.0>,%a0
    3670:	b0fc 0000      	cmpaw #0,%a0
    3674:	6600 fd74      	bnew 33ea <readLightgun+0x1d0>
    3678:	6000 fcf8      	braw 3372 <readLightgun+0x158>
    367c:	7002           	moveq #2,%d0
    367e:	6000 fca2      	braw 3322 <readLightgun+0x108>
    3682:	14bc ffff      	moveb #-1,%a2@
    3686:	4e71           	nop
    3688:	14bc ffdf      	moveb #-33,%a2@
    368c:	323c 0438      	movew #1080,%d1
    3690:	51c9 fffe      	dbf %d1,3690 <readLightgun+0x476>
    3694:	207c 00a1 1100 	moveal #10555648,%a0
    369a:	3210           	movew %a0@,%d1
    369c:	0801 0008      	btst #8,%d1
    36a0:	6600 fe32      	bnew 34d4 <readLightgun+0x2ba>
    36a4:	1212           	moveb %a2@,%d1
    36a6:	14bc ffff      	moveb #-1,%a2@
    36aa:	4e71           	nop
    36ac:	14bc ffcf      	moveb #-49,%a2@
    36b0:	1401           	moveb %d1,%d2
    36b2:	e60a           	lsrb #3,%d2
    36b4:	0242 0001      	andiw #1,%d2
    36b8:	ef4a           	lslw #7,%d2
    36ba:	0801 0002      	btst #2,%d1
    36be:	6700 fe52      	beqw 3512 <readLightgun+0x2f8>
    36c2:	6000 fe4a      	braw 350e <readLightgun+0x2f4>
    36c6:	14bc ffdf      	moveb #-33,%a2@
    36ca:	6000 fdb2      	braw 347e <readLightgun+0x264>
    36ce:	14bc ffff      	moveb #-1,%a2@
    36d2:	6000 fd72      	braw 3446 <readLightgun+0x22c>
    36d6:	1482           	moveb %d2,%a2@
    36d8:	1481           	moveb %d1,%a2@
    36da:	4239 e0ff 0b7c 	clrb e0ff0b7c <extSet>
    36e0:	4cdf 0c7c      	moveml %sp@+,%d2-%d6/%a2-%a3
    36e4:	4e75           	rts
    36e6:	207c 00a1 1100 	moveal #10555648,%a0
    36ec:	3210           	movew %a0@,%d1
    36ee:	0801 0008      	btst #8,%d1
    36f2:	6700 0098      	beqw 378c <readLightgun+0x572>
    36f6:	30bc 0100      	movew #256,%a0@
    36fa:	33fc 0100 00a1 	movew #256,a11200 <_stext+0x9cf148>
    3700:	1200 
    3702:	207c 00a1 1100 	moveal #10555648,%a0
    3708:	3210           	movew %a0@,%d1
    370a:	0801 0008      	btst #8,%d1
    370e:	66f2           	bnes 3702 <readLightgun+0x4e8>
    3710:	14bc 0020      	moveb #32,%a2@
    3714:	1212           	moveb %a2@,%d1
    3716:	1412           	moveb %a2@,%d2
    3718:	14bc 0030      	moveb #48,%a2@
    371c:	30bc 0000      	movew #0,%a0@
    3720:	1202           	moveb %d2,%d1
    3722:	e209           	lsrb #1,%d1
    3724:	0a01 0001      	eorib #1,%d1
    3728:	0241 0001      	andiw #1,%d1
    372c:	ef49           	lslw #7,%d1
    372e:	0802 0000      	btst #0,%d2
    3732:	6604           	bnes 3738 <readLightgun+0x51e>
    3734:	0041 0040      	oriw #64,%d1
    3738:	41f9 e0ff 005e 	lea e0ff005e <joyState.lto_priv.0>,%a0
    373e:	2240           	moveal %d0,%a1
    3740:	d3c0           	addal %d0,%a1
    3742:	3431 8800      	movew %a1@(0,%a0:l),%d2
    3746:	47f9 e0ff 0b9e 	lea e0ff0b9e <joyType>,%a3
    374c:	17bc 0005 0800 	moveb #5,%a3@(0,%d0:l)
    3752:	3381 8800      	movew %d1,%a1@(0,%a0:l)
    3756:	2079 e0ff 0050 	moveal e0ff0050 <joyEventCB.lto_priv.0>,%a0
    375c:	b0fc 0000      	cmpaw #0,%a0
    3760:	6716           	beqs 3778 <readLightgun+0x55e>
    3762:	b242           	cmpw %d2,%d1
    3764:	6712           	beqs 3778 <readLightgun+0x55e>
    3766:	3f01           	movew %d1,%sp@-
    3768:	4267           	clrw %sp@-
    376a:	b342           	eorw %d1,%d2
    376c:	3f02           	movew %d2,%sp@-
    376e:	4267           	clrw %sp@-
    3770:	2f00           	movel %d0,%sp@-
    3772:	4e90           	jsr %a0@
    3774:	4fef 000c      	lea %sp@(12),%sp
    3778:	1239 e0ff 0b7b 	moveb e0ff0b7b <gun>,%d1
    377e:	0a01 0020      	eorib #32,%d1
    3782:	13c1 e0ff 0b7b 	moveb %d1,e0ff0b7b <gun>
    3788:	6000 fbb0      	braw 333a <readLightgun+0x120>
    378c:	14bc 0020      	moveb #32,%a2@
    3790:	1212           	moveb %a2@,%d1
    3792:	1412           	moveb %a2@,%d2
    3794:	14bc 0030      	moveb #48,%a2@
    3798:	6086           	bras 3720 <readLightgun+0x506>

0000379a <readTrackball>:
    379a:	48e7 3c00      	moveml %d2-%d5,%sp@-
    379e:	7200           	moveq #0,%d1
    37a0:	322f 0016      	movew %sp@(22),%d1
    37a4:	2241           	moveal %d1,%a1
    37a6:	d3c1           	addal %d1,%a1
    37a8:	d3fc 00a1 0003 	addal #10551299,%a1
    37ae:	207c 00a1 1100 	moveal #10555648,%a0
    37b4:	3010           	movew %a0@,%d0
    37b6:	0800 0008      	btst #8,%d0
    37ba:	6700 019e      	beqw 395a <readTrackball+0x1c0>
    37be:	30bc 0100      	movew #256,%a0@
    37c2:	33fc 0100 00a1 	movew #256,a11200 <_stext+0x9cf148>
    37c8:	1200 
    37ca:	207c 00a1 1100 	moveal #10555648,%a0
    37d0:	3010           	movew %a0@,%d0
    37d2:	0800 0008      	btst #8,%d0
    37d6:	66f2           	bnes 37ca <readTrackball+0x30>
    37d8:	12bc 0000      	moveb #0,%a1@
    37dc:	30bc 0000      	movew #0,%a0@
    37e0:	703f           	moveq #63,%d0
    37e2:	51c8 fffe      	dbf %d0,37e2 <readTrackball+0x48>
    37e6:	207c 00a1 1100 	moveal #10555648,%a0
    37ec:	3010           	movew %a0@,%d0
    37ee:	0800 0008      	btst #8,%d0
    37f2:	6700 0180      	beqw 3974 <readTrackball+0x1da>
    37f6:	30bc 0100      	movew #256,%a0@
    37fa:	33fc 0100 00a1 	movew #256,a11200 <_stext+0x9cf148>
    3800:	1200 
    3802:	207c 00a1 1100 	moveal #10555648,%a0
    3808:	3010           	movew %a0@,%d0
    380a:	0800 0008      	btst #8,%d0
    380e:	66f2           	bnes 3802 <readTrackball+0x68>
    3810:	1a11           	moveb %a1@,%d5
    3812:	12bc 0040      	moveb #64,%a1@
    3816:	30bc 0000      	movew #0,%a0@
    381a:	701f           	moveq #31,%d0
    381c:	51c8 fffe      	dbf %d0,381c <readTrackball+0x82>
    3820:	207c 00a1 1100 	moveal #10555648,%a0
    3826:	3010           	movew %a0@,%d0
    3828:	0800 0008      	btst #8,%d0
    382c:	6700 0162      	beqw 3990 <readTrackball+0x1f6>
    3830:	30bc 0100      	movew #256,%a0@
    3834:	33fc 0100 00a1 	movew #256,a11200 <_stext+0x9cf148>
    383a:	1200 
    383c:	207c 00a1 1100 	moveal #10555648,%a0
    3842:	3010           	movew %a0@,%d0
    3844:	0800 0008      	btst #8,%d0
    3848:	66f2           	bnes 383c <readTrackball+0xa2>
    384a:	1611           	moveb %a1@,%d3
    384c:	12bc 0000      	moveb #0,%a1@
    3850:	30bc 0000      	movew #0,%a0@
    3854:	701f           	moveq #31,%d0
    3856:	51c8 fffe      	dbf %d0,3856 <readTrackball+0xbc>
    385a:	207c 00a1 1100 	moveal #10555648,%a0
    3860:	3010           	movew %a0@,%d0
    3862:	0800 0008      	btst #8,%d0
    3866:	6700 0144      	beqw 39ac <readTrackball+0x212>
    386a:	30bc 0100      	movew #256,%a0@
    386e:	33fc 0100 00a1 	movew #256,a11200 <_stext+0x9cf148>
    3874:	1200 
    3876:	207c 00a1 1100 	moveal #10555648,%a0
    387c:	3010           	movew %a0@,%d0
    387e:	0800 0008      	btst #8,%d0
    3882:	66f2           	bnes 3876 <readTrackball+0xdc>
    3884:	1411           	moveb %a1@,%d2
    3886:	12bc 0040      	moveb #64,%a1@
    388a:	30bc 0000      	movew #0,%a0@
    388e:	701f           	moveq #31,%d0
    3890:	51c8 fffe      	dbf %d0,3890 <readTrackball+0xf6>
    3894:	207c 00a1 1100 	moveal #10555648,%a0
    389a:	3010           	movew %a0@,%d0
    389c:	0800 0008      	btst #8,%d0
    38a0:	6700 0126      	beqw 39c8 <readTrackball+0x22e>
    38a4:	30bc 0100      	movew #256,%a0@
    38a8:	33fc 0100 00a1 	movew #256,a11200 <_stext+0x9cf148>
    38ae:	1200 
    38b0:	207c 00a1 1100 	moveal #10555648,%a0
    38b6:	3010           	movew %a0@,%d0
    38b8:	0800 0008      	btst #8,%d0
    38bc:	66f2           	bnes 38b0 <readTrackball+0x116>
    38be:	1811           	moveb %a1@,%d4
    38c0:	30bc 0000      	movew #0,%a0@
    38c4:	0203 000f      	andib #15,%d3
    38c8:	e90d           	lslb #4,%d5
    38ca:	8605           	orb %d5,%d3
    38cc:	1002           	moveb %d2,%d0
    38ce:	e908           	lslb #4,%d0
    38d0:	1404           	moveb %d4,%d2
    38d2:	0202 000f      	andib #15,%d2
    38d6:	8400           	orb %d0,%d2
    38d8:	41f9 e0ff 0b8e 	lea e0ff0b8e <joyAxisX>,%a0
    38de:	2001           	movel %d1,%d0
    38e0:	d081           	addl %d1,%d0
    38e2:	3230 0800      	movew %a0@(0,%d0:l),%d1
    38e6:	1a03           	moveb %d3,%d5
    38e8:	4885           	extw %d5
    38ea:	9245           	subw %d5,%d1
    38ec:	3181 0800      	movew %d1,%a0@(0,%d0:l)
    38f0:	41f9 e0ff 0b7e 	lea e0ff0b7e <joyAxisY>,%a0
    38f6:	3230 0800      	movew %a0@(0,%d0:l),%d1
    38fa:	1a02           	moveb %d2,%d5
    38fc:	4885           	extw %d5
    38fe:	d245           	addw %d5,%d1
    3900:	3181 0800      	movew %d1,%a0@(0,%d0:l)
    3904:	0804 0005      	btst #5,%d4
    3908:	672a           	beqs 3934 <readTrackball+0x19a>
    390a:	303c 3080      	movew #12416,%d0
    390e:	323c 3000      	movew #12288,%d1
    3912:	0804 0004      	btst #4,%d4
    3916:	6702           	beqs 391a <readTrackball+0x180>
    3918:	3001           	movew %d1,%d0
    391a:	0c03 fffe      	cmpib #-2,%d3
    391e:	6c2e           	bges 394e <readTrackball+0x1b4>
    3920:	0040 0008      	oriw #8,%d0
    3924:	0c02 fffe      	cmpib #-2,%d2
    3928:	6c14           	bges 393e <readTrackball+0x1a4>
    392a:	0040 0002      	oriw #2,%d0
    392e:	4cdf 003c      	moveml %sp@+,%d2-%d5
    3932:	4e75           	rts
    3934:	303c 30c0      	movew #12480,%d0
    3938:	323c 3040      	movew #12352,%d1
    393c:	60d4           	bras 3912 <readTrackball+0x178>
    393e:	0c02 0002      	cmpib #2,%d2
    3942:	6fea           	bles 392e <readTrackball+0x194>
    3944:	0040 0001      	oriw #1,%d0
    3948:	4cdf 003c      	moveml %sp@+,%d2-%d5
    394c:	4e75           	rts
    394e:	0c03 0002      	cmpib #2,%d3
    3952:	6fd0           	bles 3924 <readTrackball+0x18a>
    3954:	0040 0004      	oriw #4,%d0
    3958:	60ca           	bras 3924 <readTrackball+0x18a>
    395a:	12bc 0000      	moveb #0,%a1@
    395e:	703f           	moveq #63,%d0
    3960:	51c8 fffe      	dbf %d0,3960 <readTrackball+0x1c6>
    3964:	207c 00a1 1100 	moveal #10555648,%a0
    396a:	3010           	movew %a0@,%d0
    396c:	0800 0008      	btst #8,%d0
    3970:	6600 fe84      	bnew 37f6 <readTrackball+0x5c>
    3974:	1a11           	moveb %a1@,%d5
    3976:	12bc 0040      	moveb #64,%a1@
    397a:	701f           	moveq #31,%d0
    397c:	51c8 fffe      	dbf %d0,397c <readTrackball+0x1e2>
    3980:	207c 00a1 1100 	moveal #10555648,%a0
    3986:	3010           	movew %a0@,%d0
    3988:	0800 0008      	btst #8,%d0
    398c:	6600 fea2      	bnew 3830 <readTrackball+0x96>
    3990:	1611           	moveb %a1@,%d3
    3992:	12bc 0000      	moveb #0,%a1@
    3996:	701f           	moveq #31,%d0
    3998:	51c8 fffe      	dbf %d0,3998 <readTrackball+0x1fe>
    399c:	207c 00a1 1100 	moveal #10555648,%a0
    39a2:	3010           	movew %a0@,%d0
    39a4:	0800 0008      	btst #8,%d0
    39a8:	6600 fec0      	bnew 386a <readTrackball+0xd0>
    39ac:	1411           	moveb %a1@,%d2
    39ae:	12bc 0040      	moveb #64,%a1@
    39b2:	701f           	moveq #31,%d0
    39b4:	51c8 fffe      	dbf %d0,39b4 <readTrackball+0x21a>
    39b8:	207c 00a1 1100 	moveal #10555648,%a0
    39be:	3010           	movew %a0@,%d0
    39c0:	0800 0008      	btst #8,%d0
    39c4:	6600 fede      	bnew 38a4 <readTrackball+0x10a>
    39c8:	1811           	moveb %a1@,%d4
    39ca:	6000 fef8      	braw 38c4 <readTrackball+0x12a>

000039ce <render_lane_fill_dynamic>:
    39ce:	2f03           	movel %d3,%sp@-
    39d0:	2f02           	movel %d2,%sp@-
    39d2:	202f 001c      	movel %sp@(28),%d0
    39d6:	222f 0020      	movel %sp@(32),%d1
    39da:	242f 0024      	movel %sp@(36),%d2
    39de:	7600           	moveq #0,%d3
    39e0:	162f 002b      	moveb %sp@(43),%d3
    39e4:	2f43 0024      	movel %d3,%sp@(36)
    39e8:	7600           	moveq #0,%d3
    39ea:	4603           	notb %d3
    39ec:	c682           	andl %d2,%d3
    39ee:	2f43 0020      	movel %d3,%sp@(32)
    39f2:	7400           	moveq #0,%d2
    39f4:	4602           	notb %d2
    39f6:	c481           	andl %d1,%d2
    39f8:	2f42 001c      	movel %d2,%sp@(28)
    39fc:	7600           	moveq #0,%d3
    39fe:	4603           	notb %d3
    3a00:	c680           	andl %d0,%d3
    3a02:	2f43 0018      	movel %d3,%sp@(24)
    3a06:	7000           	moveq #0,%d0
    3a08:	302f 0016      	movew %sp@(22),%d0
    3a0c:	2f40 0014      	movel %d0,%sp@(20)
    3a10:	302f 0012      	movew %sp@(18),%d0
    3a14:	2f40 0010      	movel %d0,%sp@(16)
    3a18:	241f           	movel %sp@+,%d2
    3a1a:	261f           	movel %sp@+,%d3
    3a1c:	4ef9 0001 785e 	jmp 1785e <process_dynamic_mode.isra.0>

00003a22 <render_lane_fill_fixed>:
    3a22:	7000           	moveq #0,%d0
    3a24:	102f 001f      	moveb %sp@(31),%d0
    3a28:	2f40 0010      	movel %d0,%sp@(16)
    3a2c:	302f 000e      	movew %sp@(14),%d0
    3a30:	2f40 000c      	movel %d0,%sp@(12)
    3a34:	302f 000a      	movew %sp@(10),%d0
    3a38:	2f40 0008      	movel %d0,%sp@(8)
    3a3c:	4ef9 0001 85ec 	jmp 185ec <process_fixed_mode.isra.0>

00003a42 <gauge_tick_and_render_pip>:
    3a42:	4fef ffdc      	lea %sp@(-36),%sp
    3a46:	48e7 3f3e      	moveml %d2-%d7/%a2-%fp,%sp@-
    3a4a:	246f 0054      	moveal %sp@(84),%a2
    3a4e:	4a2a 0031      	tstb %a2@(49)
    3a52:	6700 03b0      	beqw 3e04 <gauge_tick_and_render_pip+0x3c2>
    3a56:	206a 003a      	moveal %a2@(58),%a0
    3a5a:	b0fc 0000      	cmpaw #0,%a0
    3a5e:	6706           	beqs 3a66 <gauge_tick_and_render_pip+0x24>
    3a60:	2f0a           	movel %a2,%sp@-
    3a62:	4e90           	jsr %a0@
    3a64:	588f           	addql #4,%sp
    3a66:	362a 0014      	movew %a2@(20),%d3
    3a6a:	366a 0016      	moveaw %a2@(22),%a3
    3a6e:	3403           	movew %d3,%d2
    3a70:	b64b           	cmpw %a3,%d3
    3a72:	6500 039a      	bcsw 3e0e <gauge_tick_and_render_pip+0x3cc>
    3a76:	0c6a 0102 002a 	cmpiw #258,%a2@(42)
    3a7c:	6700 039c      	beqw 3e1a <gauge_tick_and_render_pip+0x3d8>
    3a80:	1a2a 0025      	moveb %a2@(37),%d5
    3a84:	182a 002c      	moveb %a2@(44),%d4
    3a88:	670c           	beqs 3a96 <gauge_tick_and_render_pip+0x54>
    3a8a:	302a 001a      	movew %a2@(26),%d0
    3a8e:	b06a 0002      	cmpw %a2@(2),%d0
    3a92:	54c4           	scc %d4
    3a94:	4404           	negb %d4
    3a96:	122a 0021      	moveb %a2@(33),%d1
    3a9a:	6700 0400      	beqw 3e9c <gauge_tick_and_render_pip+0x45a>
    3a9e:	7000           	moveq #0,%d0
    3aa0:	302a 0018      	movew %a2@(24),%d0
    3aa4:	0285 0000 00ff 	andil #255,%d5
    3aaa:	eaa0           	asrl %d5,%d0
    3aac:	4680           	notl %d0
    3aae:	0200 0001      	andib #1,%d0
    3ab2:	1f40 003a      	moveb %d0,%sp@(58)
    3ab6:	1f6a 002f 0041 	moveb %a2@(47),%sp@(65)
    3abc:	1f6a 002b 0035 	moveb %a2@(43),%sp@(53)
    3ac2:	102a 0030      	moveb %a2@(48),%d0
    3ac6:	0c2f 0002 0035 	cmpib #2,%sp@(53)
    3acc:	670c           	beqs 3ada <gauge_tick_and_render_pip+0x98>
    3ace:	4a2a 002d      	tstb %a2@(45)
    3ad2:	6706           	beqs 3ada <gauge_tick_and_render_pip+0x98>
    3ad4:	4a04           	tstb %d4
    3ad6:	6600 0374      	bnew 3e4c <gauge_tick_and_render_pip+0x40a>
    3ada:	b02f 0035      	cmpb %sp@(53),%d0
    3ade:	56c0           	sne %d0
    3ae0:	4400           	negb %d0
    3ae2:	1f40 003b      	moveb %d0,%sp@(59)
    3ae6:	1f40 0040      	moveb %d0,%sp@(64)
    3aea:	1e2a 0028      	moveb %a2@(40),%d7
    3aee:	1f6f 0035 0036 	moveb %sp@(53),%sp@(54)
    3af4:	4a07           	tstb %d7
    3af6:	6700 0370      	beqw 3e68 <gauge_tick_and_render_pip+0x426>
    3afa:	4207           	clrb %d7
    3afc:	4a01           	tstb %d1
    3afe:	6700 0368      	beqw 3e68 <gauge_tick_and_render_pip+0x426>
    3b02:	102f 003a      	moveb %sp@(58),%d0
    3b06:	0a00 0001      	eorib #1,%d0
    3b0a:	0280 0000 00ff 	andil #255,%d0
    3b10:	2840           	moveal %d0,%a4
    3b12:	322a 0004      	movew %a2@(4),%d1
    3b16:	b243           	cmpw %d3,%d1
    3b18:	6300 035a      	blsw 3e74 <gauge_tick_and_render_pip+0x432>
    3b1c:	206a 000e      	moveal %a2@(14),%a0
    3b20:	b0fc 0000      	cmpaw #0,%a0
    3b24:	6700 04be      	beqw 3fe4 <gauge_tick_and_render_pip+0x5a2>
    3b28:	7000           	moveq #0,%d0
    3b2a:	3003           	movew %d3,%d0
    3b2c:	d080           	addl %d0,%d0
    3b2e:	3030 0800      	movew %a0@(0,%d0:l),%d0
    3b32:	b242           	cmpw %d2,%d1
    3b34:	6300 02fe      	blsw 3e34 <gauge_tick_and_render_pip+0x3f2>
    3b38:	0282 0000 ffff 	andil #65535,%d2
    3b3e:	d482           	addl %d2,%d2
    3b40:	3c70 2800      	moveaw %a0@(0,%d2:l),%fp
    3b44:	b04e           	cmpw %fp,%d0
    3b46:	6200 02f4      	bhiw 3e3c <gauge_tick_and_render_pip+0x3fa>
    3b4a:	4a2f 003a      	tstb %sp@(58)
    3b4e:	6700 02f6      	beqw 3e46 <gauge_tick_and_render_pip+0x404>
    3b52:	340e           	movew %fp,%d2
    3b54:	3a2a 0012      	movew %a2@(18),%d5
    3b58:	b245           	cmpw %d5,%d1
    3b5a:	6316           	blss 3b72 <gauge_tick_and_render_pip+0x130>
    3b5c:	206a 000e      	moveal %a2@(14),%a0
    3b60:	b0fc 0000      	cmpaw #0,%a0
    3b64:	6700 04e6      	beqw 404c <gauge_tick_and_render_pip+0x60a>
    3b68:	7200           	moveq #0,%d1
    3b6a:	3205           	movew %d5,%d1
    3b6c:	d281           	addl %d1,%d1
    3b6e:	3230 1800      	movew %a0@(0,%d1:l),%d1
    3b72:	7c00           	moveq #0,%d6
    3b74:	3c00           	movew %d0,%d6
    3b76:	2f46 0030      	movel %d6,%sp@(48)
    3b7a:	b8fc 0000      	cmpaw #0,%a4
    3b7e:	6700 0326      	beqw 3ea6 <gauge_tick_and_render_pip+0x464>
    3b82:	0c2f 0002 0036 	cmpib #2,%sp@(54)
    3b88:	6700 0502      	beqw 408c <gauge_tick_and_render_pip+0x64a>
    3b8c:	4a07           	tstb %d7
    3b8e:	6600 04ec      	bnew 407c <gauge_tick_and_render_pip+0x63a>
    3b92:	0c2f 0001 0036 	cmpib #1,%sp@(54)
    3b98:	6700 052c      	beqw 40c6 <gauge_tick_and_render_pip+0x684>
    3b9c:	422f 003c      	clrb %sp@(60)
    3ba0:	b06a 001c      	cmpw %a2@(28),%d0
    3ba4:	6700 0326      	beqw 3ecc <gauge_tick_and_render_pip+0x48a>
    3ba8:	3540 001c      	movew %d0,%a2@(28)
    3bac:	3542 001e      	movew %d2,%a2@(30)
    3bb0:	156f 003a 002f 	moveb %sp@(58),%a2@(47)
    3bb6:	156f 0036 0030 	moveb %sp@(54),%a2@(48)
    3bbc:	4a04           	tstb %d4
    3bbe:	6606           	bnes 3bc6 <gauge_tick_and_render_pip+0x184>
    3bc0:	b645           	cmpw %d5,%d3
    3bc2:	6700 033c      	beqw 3f00 <gauge_tick_and_render_pip+0x4be>
    3bc6:	7800           	moveq #0,%d4
    3bc8:	182f 0036      	moveb %sp@(54),%d4
    3bcc:	7200           	moveq #0,%d1
    3bce:	122f 003c      	moveb %sp@(60),%d1
    3bd2:	2a41           	moveal %d1,%a5
    3bd4:	7a00           	moveq #0,%d5
    3bd6:	3a0e           	movew %fp,%d5
    3bd8:	1f6a 003e 0035 	moveb %a2@(62),%sp@(53)
    3bde:	1f6a 0041 0040 	moveb %a2@(65),%sp@(64)
    3be4:	4a2f 0035      	tstb %sp@(53)
    3be8:	6700 038c      	beqw 3f76 <gauge_tick_and_render_pip+0x534>
    3bec:	122a 003f      	moveb %a2@(63),%d1
    3bf0:	b22f 0035      	cmpb %sp@(53),%d1
    3bf4:	6400 0336      	bccw 3f2c <gauge_tick_and_render_pip+0x4ea>
    3bf8:	0281 0000 00ff 	andil #255,%d1
    3bfe:	d281           	addl %d1,%d1
    3c00:	d281           	addl %d1,%d1
    3c02:	206a 0032      	moveal %a2@(50),%a0
    3c06:	2070 1800      	moveal %a0@(0,%d1:l),%a0
    3c0a:	b0fc 0000      	cmpaw #0,%a0
    3c0e:	6700 031c      	beqw 3f2c <gauge_tick_and_render_pip+0x4ea>
    3c12:	2268 0012      	moveal %a0@(18),%a1
    3c16:	426a 0094      	clrw %a2@(148)
    3c1a:	426a 0096      	clrw %a2@(150)
    3c1e:	426a 0098      	clrw %a2@(152)
    3c22:	426a 009a      	clrw %a2@(154)
    3c26:	426a 009c      	clrw %a2@(156)
    3c2a:	426a 009e      	clrw %a2@(158)
    3c2e:	426a 00a0      	clrw %a2@(160)
    3c32:	426a 00a2      	clrw %a2@(162)
    3c36:	1e29 0002      	moveb %a1@(2),%d7
    3c3a:	6700 02f0      	beqw 3f2c <gauge_tick_and_render_pip+0x4ea>
    3c3e:	2069 000c      	moveal %a1@(12),%a0
    3c42:	3611           	movew %a1@,%d3
    3c44:	2c29 0008      	movel %a1@(8),%d6
    3c48:	0c2f 0001 0036 	cmpib #1,%sp@(54)
    3c4e:	57c1           	seq %d1
    3c50:	4401           	negb %d1
    3c52:	d201           	addb %d1,%d1
    3c54:	1f41 0042      	moveb %d1,%sp@(66)
    3c58:	0c2f 0002 0036 	cmpib #2,%sp@(54)
    3c5e:	6700 04ca      	beqw 412a <gauge_tick_and_render_pip+0x6e8>
    3c62:	43ea 0094      	lea %a2@(148),%a1
    3c66:	0287 0000 00ff 	andil #255,%d7
    3c6c:	49f0 7800      	lea %a0@(0,%d7:l),%a4
    3c70:	4a2f 003c      	tstb %sp@(60)
    3c74:	56c1           	sne %d1
    3c76:	4401           	negb %d1
    3c78:	d201           	addb %d1,%d1
    3c7a:	d201           	addb %d1,%d1
    3c7c:	1f41 0043      	moveb %d1,%sp@(67)
    3c80:	2f4d 0048      	movel %a5,%sp@(72)
    3c84:	3a42           	moveaw %d2,%a5
    3c86:	2f44 004c      	movel %d4,%sp@(76)
    3c8a:	2f45 002c      	movel %d5,%sp@(44)
    3c8e:	3e03           	movew %d3,%d7
    3c90:	2646           	moveal %d6,%a3
    3c92:	2c2f 0030      	movel %sp@(48),%d6
    3c96:	7200           	moveq #0,%d1
    3c98:	1218           	moveb %a0@+,%d1
    3c9a:	1233 1800      	moveb %a3@(0,%d1:l),%d1
    3c9e:	0241 00ff      	andiw #255,%d1
    3ca2:	e749           	lslw #3,%d1
    3ca4:	3601           	movew %d1,%d3
    3ca6:	d647           	addw %d7,%d3
    3ca8:	3400           	movew %d0,%d2
    3caa:	9443           	subw %d3,%d2
    3cac:	3202           	movew %d2,%d1
    3cae:	780f           	moveq #15,%d4
    3cb0:	e861           	asrw %d4,%d1
    3cb2:	4641           	notw %d1
    3cb4:	c242           	andw %d2,%d1
    3cb6:	0c41 0008      	cmpiw #8,%d1
    3cba:	6200 031a      	bhiw 3fd6 <gauge_tick_and_render_pip+0x594>
    3cbe:	340d           	movew %a5,%d2
    3cc0:	9443           	subw %d3,%d2
    3cc2:	3802           	movew %d2,%d4
    3cc4:	7a0f           	moveq #15,%d5
    3cc6:	ea64           	asrw %d5,%d4
    3cc8:	4644           	notw %d4
    3cca:	c842           	andw %d2,%d4
    3ccc:	0c44 0008      	cmpiw #8,%d4
    3cd0:	6200 02fe      	bhiw 3fd0 <gauge_tick_and_render_pip+0x58e>
    3cd4:	1401           	moveb %d1,%d2
    3cd6:	b204           	cmpb %d4,%d1
    3cd8:	6302           	blss 3cdc <gauge_tick_and_render_pip+0x29a>
    3cda:	1801           	moveb %d1,%d4
    3cdc:	0c41 0008      	cmpiw #8,%d1
    3ce0:	6700 02f4      	beqw 3fd6 <gauge_tick_and_render_pip+0x594>
    3ce4:	0c04 0008      	cmpib #8,%d4
    3ce8:	6700 02f2      	beqw 3fdc <gauge_tick_and_render_pip+0x59a>
    3cec:	380e           	movew %fp,%d4
    3cee:	9843           	subw %d3,%d4
    3cf0:	3604           	movew %d4,%d3
    3cf2:	7a0f           	moveq #15,%d5
    3cf4:	ea63           	asrw %d5,%d3
    3cf6:	4643           	notw %d3
    3cf8:	c644           	andw %d4,%d3
    3cfa:	0c43 0008      	cmpiw #8,%d3
    3cfe:	6200 01f8      	bhiw 3ef8 <gauge_tick_and_render_pip+0x4b6>
    3d02:	b403           	cmpb %d3,%d2
    3d04:	6302           	blss 3d08 <gauge_tick_and_render_pip+0x2c6>
    3d06:	1601           	moveb %d1,%d3
    3d08:	0c03 0008      	cmpib #8,%d3
    3d0c:	6700 01ea      	beqw 3ef8 <gauge_tick_and_render_pip+0x4b6>
    3d10:	4201           	clrb %d1
    3d12:	12c1           	moveb %d1,%a1@+
    3d14:	b9c8           	cmpal %a0,%a4
    3d16:	6600 ff7e      	bnew 3c96 <gauge_tick_and_render_pip+0x254>
    3d1a:	340d           	movew %a5,%d2
    3d1c:	2a6f 0048      	moveal %sp@(72),%a5
    3d20:	282f 004c      	movel %sp@(76),%d4
    3d24:	2a2f 002c      	movel %sp@(44),%d5
    3d28:	2f46 0030      	movel %d6,%sp@(48)
    3d2c:	41f9 e0ff 0b46 	lea e0ff0b46 <s_traceContext.lto_priv.0>,%a0
    3d32:	4250           	clrw %a0@
    3d34:	4a2f 0040      	tstb %sp@(64)
    3d38:	6700 01fe      	beqw 3f38 <gauge_tick_and_render_pip+0x4f6>
    3d3c:	10bc 0001      	moveb #1,%a0@
    3d40:	4a2f 003c      	tstb %sp@(60)
    3d44:	6600 03da      	bnew 4120 <gauge_tick_and_render_pip+0x6de>
    3d48:	b440           	cmpw %d0,%d2
    3d4a:	6200 0394      	bhiw 40e0 <gauge_tick_and_render_pip+0x69e>
    3d4e:	223c 0001 a362 	movel #107362,%d1
    3d54:	41f9 0001 a36e 	lea 1a36e <gauge_lightblue_palette+0x1c>,%a0
    3d5a:	0c2f 0001 0036 	cmpib #1,%sp@(54)
    3d60:	6706           	beqs 3d68 <gauge_tick_and_render_pip+0x326>
    3d62:	41f9 0001 a375 	lea 1a375 <gauge_lightblue_palette+0x23>,%a0
    3d68:	2f01           	movel %d1,%sp@-
    3d6a:	2f08           	movel %a0,%sp@-
    3d6c:	3f0e           	movew %fp,%sp@-
    3d6e:	4267           	clrw %sp@-
    3d70:	3f02           	movew %d2,%sp@-
    3d72:	4267           	clrw %sp@-
    3d74:	3f00           	movew %d0,%sp@-
    3d76:	4267           	clrw %sp@-
    3d78:	4879 0001 a37a 	pea 1a37a <gauge_lightblue_palette+0x28>
    3d7e:	4eb9 0001 363a 	jsr 1363a <kprintf>
    3d84:	162a 003e      	moveb %a2@(62),%d3
    3d88:	5303           	subqb #1,%d3
    3d8a:	4fef 0018      	lea %sp@(24),%sp
    3d8e:	4a2a 003e      	tstb %a2@(62)
    3d92:	676a           	beqs 3dfe <gauge_tick_and_render_pip+0x3bc>
    3d94:	1c2f 0041      	moveb %sp@(65),%d6
    3d98:	bc2f 003a      	cmpb %sp@(58),%d6
    3d9c:	56c7           	sne %d7
    3d9e:	4407           	negb %d7
    3da0:	0282 0000 ffff 	andil #65535,%d2
    3da6:	7000           	moveq #0,%d0
    3da8:	1003           	moveb %d3,%d0
    3daa:	2c40           	moveal %d0,%fp
    3dac:	ddce           	addal %fp,%fp
    3dae:	ddce           	addal %fp,%fp
    3db0:	47f9 e0ff 0b46 	lea e0ff0b46 <s_traceContext.lto_priv.0>,%a3
    3db6:	7200           	moveq #0,%d1
    3db8:	122f 003b      	moveb %sp@(59),%d1
    3dbc:	2841           	moveal %d1,%a4
    3dbe:	0287 0000 00ff 	andil #255,%d7
    3dc4:	2c2f 0030      	movel %sp@(48),%d6
    3dc8:	206a 0032      	moveal %a2@(50),%a0
    3dcc:	2070 e800      	moveal %a0@(0,%fp:l),%a0
    3dd0:	b0fc 0000      	cmpaw #0,%a0
    3dd4:	671e           	beqs 3df4 <gauge_tick_and_render_pip+0x3b2>
    3dd6:	1743 0001      	moveb %d3,%a3@(1)
    3dda:	2f0c           	movel %a4,%sp@-
    3ddc:	2f04           	movel %d4,%sp@-
    3dde:	2f07           	movel %d7,%sp@-
    3de0:	2f0d           	movel %a5,%sp@-
    3de2:	2f05           	movel %d5,%sp@-
    3de4:	2f02           	movel %d2,%sp@-
    3de6:	2f06           	movel %d6,%sp@-
    3de8:	2f08           	movel %a0,%sp@-
    3dea:	2068 000a      	moveal %a0@(10),%a0
    3dee:	4e90           	jsr %a0@
    3df0:	4fef 0020      	lea %sp@(32),%sp
    3df4:	5303           	subqb #1,%d3
    3df6:	598e           	subql #4,%fp
    3df8:	0c03 ffff      	cmpib #-1,%d3
    3dfc:	66ca           	bnes 3dc8 <gauge_tick_and_render_pip+0x386>
    3dfe:	4279 e0ff 0b46 	clrw e0ff0b46 <s_traceContext.lto_priv.0>
    3e04:	4cdf 7cfc      	moveml %sp@+,%d2-%d7/%a2-%fp
    3e08:	4fef 0024      	lea %sp@(36),%sp
    3e0c:	4e75           	rts
    3e0e:	340b           	movew %a3,%d2
    3e10:	0c6a 0102 002a 	cmpiw #258,%a2@(42)
    3e16:	6600 fc68      	bnew 3a80 <gauge_tick_and_render_pip+0x3e>
    3e1a:	1a2a 0027      	moveb %a2@(39),%d5
    3e1e:	6000 fc64      	braw 3a84 <gauge_tick_and_render_pip+0x42>
    3e22:	0286 0000 ffff 	andil #65535,%d6
    3e28:	dc86           	addl %d6,%d6
    3e2a:	3036 6800      	movew %fp@(0,%d6:l),%d0
    3e2e:	b242           	cmpw %d2,%d1
    3e30:	6200 01f8      	bhiw 402a <gauge_tick_and_render_pip+0x5e8>
    3e34:	3c41           	moveaw %d1,%fp
    3e36:	b041           	cmpw %d1,%d0
    3e38:	6300 fd10      	blsw 3b4a <gauge_tick_and_render_pip+0x108>
    3e3c:	3c40           	moveaw %d0,%fp
    3e3e:	4a2f 003a      	tstb %sp@(58)
    3e42:	6600 fd0e      	bnew 3b52 <gauge_tick_and_render_pip+0x110>
    3e46:	3400           	movew %d0,%d2
    3e48:	6000 fd0a      	braw 3b54 <gauge_tick_and_render_pip+0x112>
    3e4c:	0c00 0001      	cmpib #1,%d0
    3e50:	56c0           	sne %d0
    3e52:	4400           	negb %d0
    3e54:	1f40 003b      	moveb %d0,%sp@(59)
    3e58:	1f40 0040      	moveb %d0,%sp@(64)
    3e5c:	1f44 0036      	moveb %d4,%sp@(54)
    3e60:	1e04           	moveb %d4,%d7
    3e62:	4a01           	tstb %d1
    3e64:	6600 fc9c      	bnew 3b02 <gauge_tick_and_render_pip+0xc0>
    3e68:	99cc           	subal %a4,%a4
    3e6a:	322a 0004      	movew %a2@(4),%d1
    3e6e:	b243           	cmpw %d3,%d1
    3e70:	6200 fcaa      	bhiw 3b1c <gauge_tick_and_render_pip+0xda>
    3e74:	b242           	cmpw %d2,%d1
    3e76:	6300 00ac      	blsw 3f24 <gauge_tick_and_render_pip+0x4e2>
    3e7a:	206a 000e      	moveal %a2@(14),%a0
    3e7e:	b0fc 0000      	cmpaw #0,%a0
    3e82:	6700 0190      	beqw 4014 <gauge_tick_and_render_pip+0x5d2>
    3e86:	3001           	movew %d1,%d0
    3e88:	0282 0000 ffff 	andil #65535,%d2
    3e8e:	d482           	addl %d2,%d2
    3e90:	3c70 2800      	moveaw %a0@(0,%d2:l),%fp
    3e94:	b04e           	cmpw %fp,%d0
    3e96:	6300 fcb2      	blsw 3b4a <gauge_tick_and_render_pip+0x108>
    3e9a:	60a0           	bras 3e3c <gauge_tick_and_render_pip+0x3fa>
    3e9c:	1f7c 0001 003a 	moveb #1,%sp@(58)
    3ea2:	6000 fc12      	braw 3ab6 <gauge_tick_and_render_pip+0x74>
    3ea6:	422f 003c      	clrb %sp@(60)
    3eaa:	4a07           	tstb %d7
    3eac:	6700 fcf2      	beqw 3ba0 <gauge_tick_and_render_pip+0x15e>
    3eb0:	4a2f 003a      	tstb %sp@(58)
    3eb4:	6700 fcea      	beqw 3ba0 <gauge_tick_and_render_pip+0x15e>
    3eb8:	3c40           	moveaw %d0,%fp
    3eba:	3400           	movew %d0,%d2
    3ebc:	42af 0030      	clrl %sp@(48)
    3ec0:	4241           	clrw %d1
    3ec2:	4240           	clrw %d0
    3ec4:	b06a 001c      	cmpw %a2@(28),%d0
    3ec8:	6600 fcde      	bnew 3ba8 <gauge_tick_and_render_pip+0x166>
    3ecc:	b46a 001e      	cmpw %a2@(30),%d2
    3ed0:	6600 fcd6      	bnew 3ba8 <gauge_tick_and_render_pip+0x166>
    3ed4:	1c2f 0041      	moveb %sp@(65),%d6
    3ed8:	bc2f 003a      	cmpb %sp@(58),%d6
    3edc:	6600 fcca      	bnew 3ba8 <gauge_tick_and_render_pip+0x166>
    3ee0:	b240           	cmpw %d0,%d1
    3ee2:	6600 fcc4      	bnew 3ba8 <gauge_tick_and_render_pip+0x166>
    3ee6:	4a2f 0040      	tstb %sp@(64)
    3eea:	6600 fcbc      	bnew 3ba8 <gauge_tick_and_render_pip+0x166>
    3eee:	4cdf 7cfc      	moveml %sp@+,%d2-%d7/%a2-%fp
    3ef2:	4fef 0024      	lea %sp@(36),%sp
    3ef6:	4e75           	rts
    3ef8:	122f 0043      	moveb %sp@(67),%d1
    3efc:	6000 fe14      	braw 3d12 <gauge_tick_and_render_pip+0x2d0>
    3f00:	4a6a 0020      	tstw %a2@(32)
    3f04:	6600 fcc0      	bnew 3bc6 <gauge_tick_and_render_pip+0x184>
    3f08:	4a2a 002e      	tstb %a2@(46)
    3f0c:	660e           	bnes 3f1c <gauge_tick_and_render_pip+0x4da>
    3f0e:	ba4b           	cmpw %a3,%d5
    3f10:	6500 fcb4      	bcsw 3bc6 <gauge_tick_and_render_pip+0x184>
    3f14:	4a2f 0035      	tstb %sp@(53)
    3f18:	6600 fcac      	bnew 3bc6 <gauge_tick_and_render_pip+0x184>
    3f1c:	422a 0031      	clrb %a2@(49)
    3f20:	6000 fca4      	braw 3bc6 <gauge_tick_and_render_pip+0x184>
    3f24:	3c41           	moveaw %d1,%fp
    3f26:	3001           	movew %d1,%d0
    3f28:	6000 fc20      	braw 3b4a <gauge_tick_and_render_pip+0x108>
    3f2c:	4279 e0ff 0b46 	clrw e0ff0b46 <s_traceContext.lto_priv.0>
    3f32:	4a2f 0040      	tstb %sp@(64)
    3f36:	664c           	bnes 3f84 <gauge_tick_and_render_pip+0x542>
    3f38:	162f 0035      	moveb %sp@(53),%d3
    3f3c:	5303           	subqb #1,%d3
    3f3e:	1c2f 0041      	moveb %sp@(65),%d6
    3f42:	bc2f 003a      	cmpb %sp@(58),%d6
    3f46:	56c7           	sne %d7
    3f48:	4407           	negb %d7
    3f4a:	0282 0000 ffff 	andil #65535,%d2
    3f50:	7000           	moveq #0,%d0
    3f52:	1003           	moveb %d3,%d0
    3f54:	2c40           	moveal %d0,%fp
    3f56:	ddce           	addal %fp,%fp
    3f58:	ddce           	addal %fp,%fp
    3f5a:	47f9 e0ff 0b46 	lea e0ff0b46 <s_traceContext.lto_priv.0>,%a3
    3f60:	7200           	moveq #0,%d1
    3f62:	122f 003b      	moveb %sp@(59),%d1
    3f66:	2841           	moveal %d1,%a4
    3f68:	0287 0000 00ff 	andil #255,%d7
    3f6e:	2c2f 0030      	movel %sp@(48),%d6
    3f72:	6000 fe54      	braw 3dc8 <gauge_tick_and_render_pip+0x386>
    3f76:	4279 e0ff 0b46 	clrw e0ff0b46 <s_traceContext.lto_priv.0>
    3f7c:	4a2f 0040      	tstb %sp@(64)
    3f80:	6700 fe7c      	beqw 3dfe <gauge_tick_and_render_pip+0x3bc>
    3f84:	13fc 0001 e0ff 	moveb #1,e0ff0b46 <s_traceContext.lto_priv.0>
    3f8a:	0b46 
    3f8c:	0c2f 0002 0036 	cmpib #2,%sp@(54)
    3f92:	6600 fdac      	bnew 3d40 <gauge_tick_and_render_pip+0x2fe>
    3f96:	223c 0001 a369 	movel #107369,%d1
    3f9c:	2041           	moveal %d1,%a0
    3f9e:	2f01           	movel %d1,%sp@-
    3fa0:	2f08           	movel %a0,%sp@-
    3fa2:	3f0e           	movew %fp,%sp@-
    3fa4:	4267           	clrw %sp@-
    3fa6:	3f02           	movew %d2,%sp@-
    3fa8:	4267           	clrw %sp@-
    3faa:	3f00           	movew %d0,%sp@-
    3fac:	4267           	clrw %sp@-
    3fae:	4879 0001 a37a 	pea 1a37a <gauge_lightblue_palette+0x28>
    3fb4:	4eb9 0001 363a 	jsr 1363a <kprintf>
    3fba:	162a 003e      	moveb %a2@(62),%d3
    3fbe:	5303           	subqb #1,%d3
    3fc0:	4fef 0018      	lea %sp@(24),%sp
    3fc4:	4a2a 003e      	tstb %a2@(62)
    3fc8:	6600 fdca      	bnew 3d94 <gauge_tick_and_render_pip+0x352>
    3fcc:	6000 fe30      	braw 3dfe <gauge_tick_and_render_pip+0x3bc>
    3fd0:	0c41 0008      	cmpiw #8,%d1
    3fd4:	6606           	bnes 3fdc <gauge_tick_and_render_pip+0x59a>
    3fd6:	7201           	moveq #1,%d1
    3fd8:	6000 fd38      	braw 3d12 <gauge_tick_and_render_pip+0x2d0>
    3fdc:	122f 0042      	moveb %sp@(66),%d1
    3fe0:	6000 fd30      	braw 3d12 <gauge_tick_and_render_pip+0x2d0>
    3fe4:	2c6a 0006      	moveal %a2@(6),%fp
    3fe8:	bcfc 0000      	cmpaw #0,%fp
    3fec:	6700 0114      	beqw 4102 <gauge_tick_and_render_pip+0x6c0>
    3ff0:	3a12           	movew %a2@,%d5
    3ff2:	6700 00f6      	beqw 40ea <gauge_tick_and_render_pip+0x6a8>
    3ff6:	43ee 0002      	lea %fp@(2),%a1
    3ffa:	91c8           	subal %a0,%a0
    3ffc:	3c08           	movew %a0,%d6
    3ffe:	5248           	addqw #1,%a0
    4000:	3019           	movew %a1@+,%d0
    4002:	b043           	cmpw %d3,%d0
    4004:	6200 fe1c      	bhiw 3e22 <gauge_tick_and_render_pip+0x3e0>
    4008:	ba48           	cmpw %a0,%d5
    400a:	66f0           	bnes 3ffc <gauge_tick_and_render_pip+0x5ba>
    400c:	b242           	cmpw %d2,%d1
    400e:	621a           	bhis 402a <gauge_tick_and_render_pip+0x5e8>
